 VIP Linker 7.5.
  Module 'C:\projects\prolog\Lab1\Exe\Lab1.exe' Map. Tue Oct 04 12:46:06 2016

Frame 001000   Size 045050.  Name=<   .text>, 	Chars=60000020h. [CER]
Frame 047000   Size 02F7C0.  Name=<  .rdata>, 	Chars=40000040h. [IR]
Frame 077000   Size 000050.  Name=< .gcroot>, 	Chars=C0000040h. [IRW]
Frame 078000   Size 0006F0.  Name=<  VIPini>, 	Chars=40000040h. [IR]
Frame 079000   Size 000010.  Name=<  VIPsym>, 	Chars=40000040h. [IR]
Frame 07A000   Size 000F10.  Name=<  VIPtpd>, 	Chars=40000040h. [IR]
Frame 07B000   Size 000DD0.  Name=<  VIPtpl>, 	Chars=40000040h. [IR]
Frame 07C000   Size 000170.  Name=<   .data>, 	Chars=C0000040h. [IRW]
Frame 07D000   Size 000320.  Name=<  PRODBG>, 	Chars=40000040h. [IR]

	--- S e g m e n t s : ---

Frame 001000   Size 045050.  Name=<   .text>, 	Chars=60000020h. [CER]
001000:000000 044E70   .text::CODE::<no group> F=4
   001000   Module 'Obj\varm.40D08892.obj'
   002730   Module 'Obj\vpidomains.05891DA9.obj'
   0027F0   Module 'Obj\console_api.63955AF5.obj'
   002970   Module 'Obj\exe_api.BB59C7F0.obj'
   002F00   Module 'Obj\filesystem_api.D2434073.obj'
   005610   Module 'Obj\gui_api.660F5D37.obj'
   0091C0   Module 'Obj\locale_api.813BCFA0.obj'
   009450   Module 'Obj\memory_api.61C8F3DA.obj'
   009BC0   Module 'Obj\multithread_api.6656783C.obj'
   00ABD0   Module 'Obj\registry_api.32A69E85.obj'
   00BEF0   Module 'Obj\runtime_api.77D75C02.obj'
   00CAE0   Module 'Obj\shell_api.FFCE11BE.obj'
   00CEB0   Module 'Obj\string8_api.5ED5FF25.obj'
   00D060   Module 'Obj\systeminformation_api.344506F5.obj'
   00D610   Module 'Obj\time_api.1A6CCE63.obj'
   00EA10   Module 'Obj\windowsapi.93A73582.obj'
   00ECC0   Module 'Obj\main.A22FE9BF.obj'
   012070   Module 'Obj\exe.CB067240.obj'
   012380   Module 'Obj\binary.A4D00680.obj'
   017300   Module 'Obj\boolean.E82F26DC.obj'
   017430   Module 'Obj\redblackset.81A33291.obj'
   0195F0   Module 'Obj\redblacktree.34565F50.obj'
   01C110   Module 'Obj\collectionsupport.A87B70B8.obj'
   01C2B0   Module 'Obj\arraym_inline.0A13D119.obj'
   01D5F0   Module 'Obj\mapm_redblack.88A5A755.obj'
   01DD20   Module 'Obj\setm_redblack.5372EEBC.obj'
   01E280   Module 'Obj\collectionmsupport.64B31F2A.obj'
   01E580   Module 'Obj\mapmsupport.A422FE9A.obj'
   01EC90   Module 'Obj\console.93C0DBD8.obj'
   021250   Module 'Obj\core.9A8E3854.obj'
   021630   Module 'Obj\event.5052287E.obj'
   024F00   Module 'Obj\exception.B3237F89.obj'
   027180   Module 'Obj\exceptiondump.364682AD.obj'
   028790   Module 'Obj\filesystem.AD950C87.obj'
   030BB0   Module 'Obj\list.50589F40.obj'
   037770   Module 'Obj\math.FC1B1006.obj'
   038E00   Module 'Obj\memory.89ECA104.obj'
   03AF50   Module 'Obj\namedvalue.9E6FA98D.obj'
   03C3A0   Module 'Obj\programcontrol.09950828.obj'
   03C3E0   Module 'Obj\reflection.9A16C2FF.obj'
   03C880   Module 'Obj\registry.9E3F9277.obj'
   03D730   Module 'Obj\std.8408A9CC.obj'
   03E120   Module 'Obj\inputstreamsupport.CF2B28B0.obj'
   03E4F0   Module 'Obj\outputstreamsupport.DD5669F3.obj'
   03EA00   Module 'Obj\stream.6FDF4122.obj'
   03F8C0   Module 'Obj\string.C639126F.obj'
   045540   Module 'Obj\string8.ACF7B790.obj'
001000:044E70 0001E0   .text$mn::CODE::<no group> F=4
   045E70   Module '..\..\..\_intermediate\sourceVS\vipInit\Win32\ReleasePE\VIPMain.obj'
   045EE0   Module '..\..\..\_intermediate\sourceVS\vipInit\Win32\ReleasePE\VIPDll.obj'
   046030   Module '..\..\..\_intermediate\sourceVS\vipInit\Win32\ReleasePE\VIPPE.obj'

Frame 047000   Size 02F7C0.  Name=<  .rdata>, 	Chars=40000040h. [IR]
047000:000000 004570   VIPConst::VIPConst::.rdata F=4
   047000   Module 'Obj\filesystem_api.D2434073.obj'
   0471B0   Module 'Obj\time_api.1A6CCE63.obj'
   047300   Module 'Obj\binary.A4D00680.obj'
   047550   Module 'Obj\exception.B3237F89.obj'
   04A8F0   Module 'Obj\filesystem.AD950C87.obj'
   04AAE0   Module 'Obj\math.FC1B1006.obj'
   04AE40   Module 'Obj\namedvalue.9E6FA98D.obj'
   04AED0   Module 'Obj\registry.9E3F9277.obj'
   04B070   Module 'Obj\stream.6FDF4122.obj'
   04B370   Module 'Obj\string.C639126F.obj'
047000:004570 00B220   .rdata::.rdata::.rdata F=4
   04B570   Module 'Obj\varm.40D08892.obj'
   04B680   Module 'Obj\vpidomains.05891DA9.obj'
   04B720   Module 'Obj\console_api.63955AF5.obj'
   04B9A0   Module 'Obj\exe_api.BB59C7F0.obj'
   04BBD0   Module 'Obj\filesystem_api.D2434073.obj'
   04C800   Module 'Obj\gui_api.660F5D37.obj'
   04DCD0   Module 'Obj\locale_api.813BCFA0.obj'
   04DD80   Module 'Obj\memory_api.61C8F3DA.obj'
   04E090   Module 'Obj\multithread_api.6656783C.obj'
   04E850   Module 'Obj\registry_api.32A69E85.obj'
   04EC80   Module 'Obj\runtime_api.77D75C02.obj'
   04F550   Module 'Obj\shell_api.FFCE11BE.obj'
   04FD60   Module 'Obj\string_api.CAAD362C.obj'
   04FE10   Module 'Obj\string8_api.5ED5FF25.obj'
   050030   Module 'Obj\systeminformation_api.344506F5.obj'
   050330   Module 'Obj\time_api.1A6CCE63.obj'
   050860   Module 'Obj\windowsapi.93A73582.obj'
   050900   Module 'Obj\main.A22FE9BF.obj'
   050D40   Module 'Obj\exe.CB067240.obj'
   050DE0   Module 'Obj\binary.A4D00680.obj'
   051460   Module 'Obj\boolean.E82F26DC.obj'
   0514F0   Module 'Obj\redblackset.81A33291.obj'
   0516E0   Module 'Obj\redblacktree.34565F50.obj'
   051890   Module 'Obj\collection.A9230E73.obj'
   051930   Module 'Obj\collectionsupport.A87B70B8.obj'
   051A00   Module 'Obj\arraym_inline.0A13D119.obj'
   051C50   Module 'Obj\mapm_redblack.88A5A755.obj'
   051D10   Module 'Obj\setm_redblack.5372EEBC.obj'
   051DD0   Module 'Obj\collectionmsupport.64B31F2A.obj'
   051EB0   Module 'Obj\mapmsupport.A422FE9A.obj'
   052050   Module 'Obj\console.93C0DBD8.obj'
   052800   Module 'Obj\core.9A8E3854.obj'
   0528E0   Module 'Obj\event.5052287E.obj'
   052970   Module 'Obj\exception.B3237F89.obj'
   052E70   Module 'Obj\exceptiondump.364682AD.obj'
   0532E0   Module 'Obj\filesystem.AD950C87.obj'
   0540D0   Module 'Obj\list.50589F40.obj'
   0544E0   Module 'Obj\math.FC1B1006.obj'
   054720   Module 'Obj\memory.89ECA104.obj'
   0547B0   Module 'Obj\namedvalue.9E6FA98D.obj'
   054B90   Module 'Obj\programcontrol.09950828.obj'
   054C40   Module 'Obj\reflection.9A16C2FF.obj'
   054EF0   Module 'Obj\typelibrary.5932841B.obj'
   054FA0   Module 'Obj\registry.9E3F9277.obj'
   055230   Module 'Obj\std.8408A9CC.obj'
   0552B0   Module 'Obj\inputstreamsupport.CF2B28B0.obj'
   055500   Module 'Obj\outputstreamsupport.DD5669F3.obj'
   055780   Module 'Obj\stream.6FDF4122.obj'
   055CE0   Module 'Obj\string.C639126F.obj'
   056650   Module 'Obj\string8.ACF7B790.obj'
   0566E0   Module '..\..\..\_intermediate\sourceVS\vipInit\Win32\ReleasePE\VIPPE.obj'
047000:00F790 003410   VIPInter::VIPInter::.rdata F=4
   056790   Module 'Obj\varm.40D08892.obj'
   057920   Module 'Obj\exe_api.BB59C7F0.obj'
   057FA0   Module 'Obj\filesystem_api.D2434073.obj'
   058310   Module 'Obj\shell_api.FFCE11BE.obj'
   058DE0   Module 'Obj\collectionsupport.A87B70B8.obj'
   059070   Module 'Obj\arraym_inline.0A13D119.obj'
   059560   Module 'Obj\core.9A8E3854.obj'
   059620   Module 'Obj\exception.B3237F89.obj'
047000:012BA0 002100   VIPTypeL::VIPTypeL::.rdata F=4
   059BA0   Module 'Obj\varm.40D08892.obj'
   059DA0   Module 'Obj\vpidomains.05891DA9.obj'
   059F10   Module 'Obj\console_api.63955AF5.obj'
   059F80   Module 'Obj\exe_api.BB59C7F0.obj'
   05A050   Module 'Obj\filesystem_api.D2434073.obj'
   05A1D0   Module 'Obj\gui_api.660F5D37.obj'
   05A670   Module 'Obj\locale_api.813BCFA0.obj'
   05A6C0   Module 'Obj\memory_api.61C8F3DA.obj'
   05A700   Module 'Obj\multithread_api.6656783C.obj'
   05A7B0   Module 'Obj\registry_api.32A69E85.obj'
   05A7C0   Module 'Obj\runtime_api.77D75C02.obj'
   05A7D0   Module 'Obj\shell_api.FFCE11BE.obj'
   05A890   Module 'Obj\systeminformation_api.344506F5.obj'
   05A8F0   Module 'Obj\time_api.1A6CCE63.obj'
   05A930   Module 'Obj\windowsapi.93A73582.obj'
   05A960   Module 'Obj\main.A22FE9BF.obj'
   05AA70   Module 'Obj\exe.CB067240.obj'
   05AA80   Module 'Obj\binary.A4D00680.obj'
   05AAA0   Module 'Obj\redblackset.81A33291.obj'
   05AAB0   Module 'Obj\redblacktree.34565F50.obj'
   05AAE0   Module 'Obj\collectionsupport.A87B70B8.obj'
   05AB00   Module 'Obj\arraym_inline.0A13D119.obj'
   05AB50   Module 'Obj\mapm_redblack.88A5A755.obj'
   05AB70   Module 'Obj\setm_redblack.5372EEBC.obj'
   05AB90   Module 'Obj\collectionmsupport.64B31F2A.obj'
   05ABB0   Module 'Obj\mapmsupport.A422FE9A.obj'
   05ABD0   Module 'Obj\console.93C0DBD8.obj'
   05AC20   Module 'Obj\core.9A8E3854.obj'
   05B1A0   Module 'Obj\event.5052287E.obj'
   05B5D0   Module 'Obj\exception.B3237F89.obj'
   05B6A0   Module 'Obj\exceptiondump.364682AD.obj'
   05B6C0   Module 'Obj\filesystem.AD950C87.obj'
   05B7E0   Module 'Obj\list.50589F40.obj'
   05B8A0   Module 'Obj\math.FC1B1006.obj'
   05B8D0   Module 'Obj\memory.89ECA104.obj'
   05BAE0   Module 'Obj\programcontrol.09950828.obj'
   05BB00   Module 'Obj\reflection.9A16C2FF.obj'
   05BB70   Module 'Obj\registry.9E3F9277.obj'
   05BB90   Module 'Obj\inputstreamsupport.CF2B28B0.obj'
   05BBA0   Module 'Obj\outputstreamsupport.DD5669F3.obj'
   05BBB0   Module 'Obj\stream.6FDF4122.obj'
   05BBF0   Module 'Obj\string.C639126F.obj'
047000:014CA0 01AB20   VIPClass::VIPClass::.rdata F=4
   05BCA0   Module 'Obj\varm.40D08892.obj'
   05CC10   Module 'Obj\vpidomains.05891DA9.obj'
   05E200   Module 'Obj\console_api.63955AF5.obj'
   05E620   Module 'Obj\exe_api.BB59C7F0.obj'
   05E880   Module 'Obj\filesystem_api.D2434073.obj'
   05FB10   Module 'Obj\gui_api.660F5D37.obj'
   061A10   Module 'Obj\locale_api.813BCFA0.obj'
   061C10   Module 'Obj\memory_api.61C8F3DA.obj'
   061E40   Module 'Obj\multithread_api.6656783C.obj'
   062410   Module 'Obj\registry_api.32A69E85.obj'
   0625B0   Module 'Obj\runtime_api.77D75C02.obj'
   062700   Module 'Obj\shell_api.FFCE11BE.obj'
   062F20   Module 'Obj\string_api.CAAD362C.obj'
   062FC0   Module 'Obj\string8_api.5ED5FF25.obj'
   0630F0   Module 'Obj\systeminformation_api.344506F5.obj'
   0636D0   Module 'Obj\time_api.1A6CCE63.obj'
   063A00   Module 'Obj\windowsapi.93A73582.obj'
   063BB0   Module 'Obj\main.A22FE9BF.obj'
   064390   Module 'Obj\exe.CB067240.obj'
   064480   Module 'Obj\binary.A4D00680.obj'
   064FA0   Module 'Obj\boolean.E82F26DC.obj'
   065010   Module 'Obj\redblackset.81A33291.obj'
   065270   Module 'Obj\redblacktree.34565F50.obj'
   065690   Module 'Obj\collectionsupport.A87B70B8.obj'
   0658E0   Module 'Obj\arraym_inline.0A13D119.obj'
   0669B0   Module 'Obj\mapm_redblack.88A5A755.obj'
   0671B0   Module 'Obj\setm_redblack.5372EEBC.obj'
   0676B0   Module 'Obj\collectionmsupport.64B31F2A.obj'
   0679C0   Module 'Obj\mapmsupport.A422FE9A.obj'
   067E20   Module 'Obj\console.93C0DBD8.obj'
   068C20   Module 'Obj\core.9A8E3854.obj'
   06A110   Module 'Obj\event.5052287E.obj'
   0703F0   Module 'Obj\exception.B3237F89.obj'
   070AC0   Module 'Obj\exceptiondump.364682AD.obj'
   070B60   Module 'Obj\filesystem.AD950C87.obj'
   072450   Module 'Obj\list.50589F40.obj'
   072D70   Module 'Obj\math.FC1B1006.obj'
   072F00   Module 'Obj\memory.89ECA104.obj'
   073C00   Module 'Obj\namedvalue.9E6FA98D.obj'
   073C80   Module 'Obj\programcontrol.09950828.obj'
   073D90   Module 'Obj\reflection.9A16C2FF.obj'
   0746B0   Module 'Obj\registry.9E3F9277.obj'
   0749A0   Module 'Obj\std.8408A9CC.obj'
   0749F0   Module 'Obj\inputstreamsupport.CF2B28B0.obj'
   074C30   Module 'Obj\outputstreamsupport.DD5669F3.obj'
   074EF0   Module 'Obj\stream.6FDF4122.obj'
   075570   Module 'Obj\string.C639126F.obj'
   076750   Module 'Obj\string8.ACF7B790.obj'

Frame 077000   Size 000050.  Name=< .gcroot>, 	Chars=C0000040h. [IRW]
077000:000000 00004C   .gcroot::.gcroot::.gcroot F=4
   077000   Module 'Obj\multithread_api.6656783C.obj'
   077004   Module 'Obj\runtime_api.77D75C02.obj'
   077008   Module 'Obj\main.A22FE9BF.obj'
   077030   Module 'Obj\exe.CB067240.obj'
   077034   Module 'Obj\console.93C0DBD8.obj'
   077040   Module 'Obj\stream.6FDF4122.obj'

Frame 078000   Size 0006F0.  Name=<  VIPini>, 	Chars=40000040h. [IR]
078000:000000 000004   VIPini$A::VIPini$A::VIPini F=4
   078000   Module 'Obj\main.A22FE9BF.obj'
078000:000004 000294   VIPini$C::VIPini$C::VIPini F=4
   078004   Module 'Obj\varm.40D08892.obj'
   078070   Module 'Obj\vpidomains.05891DA9.obj'
   078078   Module 'Obj\console_api.63955AF5.obj'
   078080   Module 'Obj\exe_api.BB59C7F0.obj'
   0780A4   Module 'Obj\filesystem_api.D2434073.obj'
   0780C0   Module 'Obj\gui_api.660F5D37.obj'
   0780C8   Module 'Obj\locale_api.813BCFA0.obj'
   0780D0   Module 'Obj\memory_api.61C8F3DA.obj'
   0780D8   Module 'Obj\multithread_api.6656783C.obj'
   0780E0   Module 'Obj\registry_api.32A69E85.obj'
   0780E8   Module 'Obj\runtime_api.77D75C02.obj'
   0780EC   Module 'Obj\shell_api.FFCE11BE.obj'
   078130   Module 'Obj\string_api.CAAD362C.obj'
   078134   Module 'Obj\string8_api.5ED5FF25.obj'
   07813C   Module 'Obj\systeminformation_api.344506F5.obj'
   078144   Module 'Obj\time_api.1A6CCE63.obj'
   07814C   Module 'Obj\windowsapi.93A73582.obj'
   078150   Module 'Obj\main.A22FE9BF.obj'
   078164   Module 'Obj\exe.CB067240.obj'
   078168   Module 'Obj\binary.A4D00680.obj'
   078178   Module 'Obj\boolean.E82F26DC.obj'
   07817C   Module 'Obj\redblackset.81A33291.obj'
   078180   Module 'Obj\redblacktree.34565F50.obj'
   078184   Module 'Obj\collection.A9230E73.obj'
   078184   Module 'Obj\collectionsupport.A87B70B8.obj'
   078190   Module 'Obj\arraym_inline.0A13D119.obj'
   0781A8   Module 'Obj\mapm_redblack.88A5A755.obj'
   0781AC   Module 'Obj\setm_redblack.5372EEBC.obj'
   0781B0   Module 'Obj\collectionmsupport.64B31F2A.obj'
   0781B4   Module 'Obj\mapmsupport.A422FE9A.obj'
   0781B8   Module 'Obj\console.93C0DBD8.obj'
   0781C4   Module 'Obj\core.9A8E3854.obj'
   0781CC   Module 'Obj\event.5052287E.obj'
   0781EC   Module 'Obj\exception.B3237F89.obj'
   07820C   Module 'Obj\exceptiondump.364682AD.obj'
   078210   Module 'Obj\filesystem.AD950C87.obj'
   078230   Module 'Obj\list.50589F40.obj'
   078234   Module 'Obj\math.FC1B1006.obj'
   07823C   Module 'Obj\memory.89ECA104.obj'
   07824C   Module 'Obj\namedvalue.9E6FA98D.obj'
   078250   Module 'Obj\programcontrol.09950828.obj'
   078254   Module 'Obj\reflection.9A16C2FF.obj'
   07825C   Module 'Obj\typelibrary.5932841B.obj'
   07825C   Module 'Obj\registry.9E3F9277.obj'
   078264   Module 'Obj\std.8408A9CC.obj'
   078268   Module 'Obj\inputstreamsupport.CF2B28B0.obj'
   07826C   Module 'Obj\outputstreamsupport.DD5669F3.obj'
   078270   Module 'Obj\stream.6FDF4122.obj'
   078284   Module 'Obj\string.C639126F.obj'
   078294   Module 'Obj\string8.ACF7B790.obj'
078000:000298 000008   VIPini$E::VIPini$E::VIPini F=4
   078298   Module 'Obj\main.A22FE9BF.obj'

Frame 079000   Size 000010.  Name=<  VIPsym>, 	Chars=40000040h. [IR]
079000:000000 000004   VIPsym$A::VIPsym$A::VIPsym F=4
   079000   Module 'Obj\main.A22FE9BF.obj'
079000:000004 000000   VIPsym$C::VIPsym$C::VIPsym F=4
   079004   Module 'Obj\varm.40D08892.obj'
   079004   Module 'Obj\vpidomains.05891DA9.obj'
   079004   Module 'Obj\console_api.63955AF5.obj'
   079004   Module 'Obj\exe_api.BB59C7F0.obj'
   079004   Module 'Obj\filesystem_api.D2434073.obj'
   079004   Module 'Obj\gui_api.660F5D37.obj'
   079004   Module 'Obj\locale_api.813BCFA0.obj'
   079004   Module 'Obj\memory_api.61C8F3DA.obj'
   079004   Module 'Obj\multithread_api.6656783C.obj'
   079004   Module 'Obj\registry_api.32A69E85.obj'
   079004   Module 'Obj\runtime_api.77D75C02.obj'
   079004   Module 'Obj\shell_api.FFCE11BE.obj'
   079004   Module 'Obj\string_api.CAAD362C.obj'
   079004   Module 'Obj\string8_api.5ED5FF25.obj'
   079004   Module 'Obj\systeminformation_api.344506F5.obj'
   079004   Module 'Obj\time_api.1A6CCE63.obj'
   079004   Module 'Obj\windowsapi.93A73582.obj'
   079004   Module 'Obj\main.A22FE9BF.obj'
   079004   Module 'Obj\exe.CB067240.obj'
   079004   Module 'Obj\binary.A4D00680.obj'
   079004   Module 'Obj\boolean.E82F26DC.obj'
   079004   Module 'Obj\redblackset.81A33291.obj'
   079004   Module 'Obj\redblacktree.34565F50.obj'
   079004   Module 'Obj\collection.A9230E73.obj'
   079004   Module 'Obj\collectionsupport.A87B70B8.obj'
   079004   Module 'Obj\arraym_inline.0A13D119.obj'
   079004   Module 'Obj\mapm_redblack.88A5A755.obj'
   079004   Module 'Obj\setm_redblack.5372EEBC.obj'
   079004   Module 'Obj\collectionmsupport.64B31F2A.obj'
   079004   Module 'Obj\mapmsupport.A422FE9A.obj'
   079004   Module 'Obj\console.93C0DBD8.obj'
   079004   Module 'Obj\core.9A8E3854.obj'
   079004   Module 'Obj\event.5052287E.obj'
   079004   Module 'Obj\exception.B3237F89.obj'
   079004   Module 'Obj\exceptiondump.364682AD.obj'
   079004   Module 'Obj\filesystem.AD950C87.obj'
   079004   Module 'Obj\list.50589F40.obj'
   079004   Module 'Obj\math.FC1B1006.obj'
   079004   Module 'Obj\memory.89ECA104.obj'
   079004   Module 'Obj\namedvalue.9E6FA98D.obj'
   079004   Module 'Obj\programcontrol.09950828.obj'
   079004   Module 'Obj\reflection.9A16C2FF.obj'
   079004   Module 'Obj\typelibrary.5932841B.obj'
   079004   Module 'Obj\registry.9E3F9277.obj'
   079004   Module 'Obj\std.8408A9CC.obj'
   079004   Module 'Obj\inputstreamsupport.CF2B28B0.obj'
   079004   Module 'Obj\outputstreamsupport.DD5669F3.obj'
   079004   Module 'Obj\stream.6FDF4122.obj'
   079004   Module 'Obj\string.C639126F.obj'
   079004   Module 'Obj\string8.ACF7B790.obj'
079000:000004 000008   VIPsym$E::VIPsym$E::VIPsym F=4
   079004   Module 'Obj\main.A22FE9BF.obj'

Frame 07A000   Size 000F10.  Name=<  VIPtpd>, 	Chars=40000040h. [IR]
07A000:000000 000004   VIPtpd$A::VIPtpd$A::VIPtpd F=4
   07A000   Module 'Obj\main.A22FE9BF.obj'
07A000:000004 000F04   VIPtpd$C::VIPtpd$C::VIPtpd F=4
   07A004   Module 'Obj\varm.40D08892.obj'
   07A0A0   Module 'Obj\vpidomains.05891DA9.obj'
   07A0F8   Module 'Obj\console_api.63955AF5.obj'
   07A174   Module 'Obj\exe_api.BB59C7F0.obj'
   07A1A8   Module 'Obj\filesystem_api.D2434073.obj'
   07A208   Module 'Obj\gui_api.660F5D37.obj'
   07A330   Module 'Obj\locale_api.813BCFA0.obj'
   07A344   Module 'Obj\memory_api.61C8F3DA.obj'
   07A350   Module 'Obj\multithread_api.6656783C.obj'
   07A37C   Module 'Obj\registry_api.32A69E85.obj'
   07A384   Module 'Obj\runtime_api.77D75C02.obj'
   07A388   Module 'Obj\shell_api.FFCE11BE.obj'
   07A400   Module 'Obj\string_api.CAAD362C.obj'
   07A400   Module 'Obj\string8_api.5ED5FF25.obj'
   07A400   Module 'Obj\systeminformation_api.344506F5.obj'
   07A41C   Module 'Obj\time_api.1A6CCE63.obj'
   07A430   Module 'Obj\windowsapi.93A73582.obj'
   07A43C   Module 'Obj\main.A22FE9BF.obj'
   07A528   Module 'Obj\exe.CB067240.obj'
   07A5B4   Module 'Obj\binary.A4D00680.obj'
   07A5D0   Module 'Obj\boolean.E82F26DC.obj'
   07A5D0   Module 'Obj\redblackset.81A33291.obj'
   07A63C   Module 'Obj\redblacktree.34565F50.obj'
   07A654   Module 'Obj\collection.A9230E73.obj'
   07A694   Module 'Obj\collectionsupport.A87B70B8.obj'
   07A6D4   Module 'Obj\arraym_inline.0A13D119.obj'
   07A7CC   Module 'Obj\mapm_redblack.88A5A755.obj'
   07A7EC   Module 'Obj\setm_redblack.5372EEBC.obj'
   07A7F4   Module 'Obj\collectionmsupport.64B31F2A.obj'
   07A7FC   Module 'Obj\mapmsupport.A422FE9A.obj'
   07A804   Module 'Obj\console.93C0DBD8.obj'
   07A8B0   Module 'Obj\core.9A8E3854.obj'
   07AA54   Module 'Obj\event.5052287E.obj'
   07AB60   Module 'Obj\exception.B3237F89.obj'
   07AB94   Module 'Obj\exceptiondump.364682AD.obj'
   07AC24   Module 'Obj\filesystem.AD950C87.obj'
   07AC74   Module 'Obj\list.50589F40.obj'
   07ACD4   Module 'Obj\math.FC1B1006.obj'
   07ACE0   Module 'Obj\memory.89ECA104.obj'
   07AD64   Module 'Obj\namedvalue.9E6FA98D.obj'
   07AD64   Module 'Obj\programcontrol.09950828.obj'
   07AD6C   Module 'Obj\reflection.9A16C2FF.obj'
   07ADA0   Module 'Obj\typelibrary.5932841B.obj'
   07ADA0   Module 'Obj\registry.9E3F9277.obj'
   07AE30   Module 'Obj\std.8408A9CC.obj'
   07AE40   Module 'Obj\inputstreamsupport.CF2B28B0.obj'
   07AEC4   Module 'Obj\outputstreamsupport.DD5669F3.obj'
   07AED0   Module 'Obj\stream.6FDF4122.obj'
   07AEE0   Module 'Obj\string.C639126F.obj'
   07AF08   Module 'Obj\string8.ACF7B790.obj'
07A000:000F08 000008   VIPtpd$E::VIPtpd$E::VIPtpd F=4
   07AF08   Module 'Obj\main.A22FE9BF.obj'

Frame 07B000   Size 000DD0.  Name=<  VIPtpl>, 	Chars=40000040h. [IR]
07B000:000000 000004   VIPtpl$A::VIPtpl$A::VIPtpl F=4
   07B000   Module 'Obj\main.A22FE9BF.obj'
07B000:000004 000DC4   VIPtpl$C::VIPtpl$C::VIPtpl F=4
   07B004   Module 'Obj\varm.40D08892.obj'
   07B084   Module 'Obj\vpidomains.05891DA9.obj'
   07B0E0   Module 'Obj\console_api.63955AF5.obj'
   07B138   Module 'Obj\exe_api.BB59C7F0.obj'
   07B16C   Module 'Obj\filesystem_api.D2434073.obj'
   07B1D4   Module 'Obj\gui_api.660F5D37.obj'
   07B314   Module 'Obj\locale_api.813BCFA0.obj'
   07B328   Module 'Obj\memory_api.61C8F3DA.obj'
   07B340   Module 'Obj\multithread_api.6656783C.obj'
   07B370   Module 'Obj\registry_api.32A69E85.obj'
   07B37C   Module 'Obj\runtime_api.77D75C02.obj'
   07B38C   Module 'Obj\shell_api.FFCE11BE.obj'
   07B3C8   Module 'Obj\string_api.CAAD362C.obj'
   07B3C8   Module 'Obj\string8_api.5ED5FF25.obj'
   07B3C8   Module 'Obj\systeminformation_api.344506F5.obj'
   07B3E0   Module 'Obj\time_api.1A6CCE63.obj'
   07B3F0   Module 'Obj\windowsapi.93A73582.obj'
   07B400   Module 'Obj\main.A22FE9BF.obj'
   07B4C0   Module 'Obj\exe.CB067240.obj'
   07B528   Module 'Obj\binary.A4D00680.obj'
   07B55C   Module 'Obj\boolean.E82F26DC.obj'
   07B55C   Module 'Obj\redblackset.81A33291.obj'
   07B5A0   Module 'Obj\redblacktree.34565F50.obj'
   07B5AC   Module 'Obj\collection.A9230E73.obj'
   07B5BC   Module 'Obj\collectionsupport.A87B70B8.obj'
   07B5C4   Module 'Obj\arraym_inline.0A13D119.obj'
   07B64C   Module 'Obj\mapm_redblack.88A5A755.obj'
   07B654   Module 'Obj\setm_redblack.5372EEBC.obj'
   07B65C   Module 'Obj\collectionmsupport.64B31F2A.obj'
   07B664   Module 'Obj\mapmsupport.A422FE9A.obj'
   07B670   Module 'Obj\console.93C0DBD8.obj'
   07B700   Module 'Obj\core.9A8E3854.obj'
   07B8A4   Module 'Obj\event.5052287E.obj'
   07B9D0   Module 'Obj\exception.B3237F89.obj'
   07BA18   Module 'Obj\exceptiondump.364682AD.obj'
   07BAE4   Module 'Obj\filesystem.AD950C87.obj'
   07BB48   Module 'Obj\list.50589F40.obj'
   07BB80   Module 'Obj\math.FC1B1006.obj'
   07BB8C   Module 'Obj\memory.89ECA104.obj'
   07BC18   Module 'Obj\namedvalue.9E6FA98D.obj'
   07BC28   Module 'Obj\programcontrol.09950828.obj'
   07BC30   Module 'Obj\reflection.9A16C2FF.obj'
   07BC70   Module 'Obj\typelibrary.5932841B.obj'
   07BC70   Module 'Obj\registry.9E3F9277.obj'
   07BCE0   Module 'Obj\std.8408A9CC.obj'
   07BCF0   Module 'Obj\inputstreamsupport.CF2B28B0.obj'
   07BD50   Module 'Obj\outputstreamsupport.DD5669F3.obj'
   07BD64   Module 'Obj\stream.6FDF4122.obj'
   07BD78   Module 'Obj\string.C639126F.obj'
   07BDC0   Module 'Obj\string8.ACF7B790.obj'
07B000:000DC8 000008   VIPtpl$E::VIPtpl$E::VIPtpl F=4
   07BDC8   Module 'Obj\main.A22FE9BF.obj'

Frame 07C000   Size 000170.  Name=<   .data>, 	Chars=C0000040h. [IRW]
07C000:000000 00015C   .data::DATA::DGROUP F=4
   07C000   Module 'Obj\varm.40D08892.obj'
   07C030   Module 'Obj\filesystem_api.D2434073.obj'
   07C038   Module 'Obj\gui_api.660F5D37.obj'
   07C040   Module 'Obj\multithread_api.6656783C.obj'
   07C048   Module 'Obj\registry_api.32A69E85.obj'
   07C04C   Module 'Obj\runtime_api.77D75C02.obj'
   07C050   Module 'Obj\systeminformation_api.344506F5.obj'
   07C054   Module 'Obj\time_api.1A6CCE63.obj'
   07C05C   Module 'Obj\binary.A4D00680.obj'
   07C06C   Module 'Obj\collectionsupport.A87B70B8.obj'
   07C074   Module 'Obj\arraym_inline.0A13D119.obj'
   07C084   Module 'Obj\mapm_redblack.88A5A755.obj'
   07C08C   Module 'Obj\setm_redblack.5372EEBC.obj'
   07C094   Module 'Obj\collectionmsupport.64B31F2A.obj'
   07C09C   Module 'Obj\mapmsupport.A422FE9A.obj'
   07C0A4   Module 'Obj\console.93C0DBD8.obj'
   07C0B4   Module 'Obj\event.5052287E.obj'
   07C0F4   Module 'Obj\exception.B3237F89.obj'
   07C0FC   Module 'Obj\filesystem.AD950C87.obj'
   07C114   Module 'Obj\memory.89ECA104.obj'
   07C124   Module 'Obj\inputstreamsupport.CF2B28B0.obj'
   07C12C   Module 'Obj\outputstreamsupport.DD5669F3.obj'
   07C134   Module 'Obj\stream.6FDF4122.obj'
   07C14C   Module 'Obj\string.C639126F.obj'
07C000:00015C 00000C   .bss::BSS::DGROUP F=4
   07C15C   Module '..\..\..\_intermediate\sourceVS\vipInit\Win32\ReleasePE\VIPDll.obj'

Frame 07D000   Size 000320.  Name=<  PRODBG>, 	Chars=40000040h. [IR]
07D000:000000 000320   PRODBG::PRODBG::PRODBG F=4
   07D000   Module 'Obj\varm.40D08892.obj'
   07D010   Module 'Obj\vpidomains.05891DA9.obj'
   07D020   Module 'Obj\console_api.63955AF5.obj'
   07D030   Module 'Obj\exe_api.BB59C7F0.obj'
   07D040   Module 'Obj\filesystem_api.D2434073.obj'
   07D050   Module 'Obj\gui_api.660F5D37.obj'
   07D060   Module 'Obj\locale_api.813BCFA0.obj'
   07D070   Module 'Obj\memory_api.61C8F3DA.obj'
   07D080   Module 'Obj\multithread_api.6656783C.obj'
   07D090   Module 'Obj\registry_api.32A69E85.obj'
   07D0A0   Module 'Obj\runtime_api.77D75C02.obj'
   07D0B0   Module 'Obj\shell_api.FFCE11BE.obj'
   07D0C0   Module 'Obj\string_api.CAAD362C.obj'
   07D0D0   Module 'Obj\string8_api.5ED5FF25.obj'
   07D0E0   Module 'Obj\systeminformation_api.344506F5.obj'
   07D0F0   Module 'Obj\time_api.1A6CCE63.obj'
   07D100   Module 'Obj\windowsapi.93A73582.obj'
   07D110   Module 'Obj\main.A22FE9BF.obj'
   07D120   Module 'Obj\exe.CB067240.obj'
   07D130   Module 'Obj\binary.A4D00680.obj'
   07D140   Module 'Obj\boolean.E82F26DC.obj'
   07D150   Module 'Obj\redblackset.81A33291.obj'
   07D160   Module 'Obj\redblacktree.34565F50.obj'
   07D170   Module 'Obj\collection.A9230E73.obj'
   07D180   Module 'Obj\collectionsupport.A87B70B8.obj'
   07D190   Module 'Obj\arraym_inline.0A13D119.obj'
   07D1A0   Module 'Obj\mapm_redblack.88A5A755.obj'
   07D1B0   Module 'Obj\setm_redblack.5372EEBC.obj'
   07D1C0   Module 'Obj\collectionmsupport.64B31F2A.obj'
   07D1D0   Module 'Obj\mapmsupport.A422FE9A.obj'
   07D1E0   Module 'Obj\console.93C0DBD8.obj'
   07D1F0   Module 'Obj\core.9A8E3854.obj'
   07D200   Module 'Obj\event.5052287E.obj'
   07D210   Module 'Obj\exception.B3237F89.obj'
   07D220   Module 'Obj\exceptiondump.364682AD.obj'
   07D230   Module 'Obj\filesystem.AD950C87.obj'
   07D240   Module 'Obj\list.50589F40.obj'
   07D250   Module 'Obj\math.FC1B1006.obj'
   07D260   Module 'Obj\memory.89ECA104.obj'
   07D270   Module 'Obj\namedvalue.9E6FA98D.obj'
   07D280   Module 'Obj\programcontrol.09950828.obj'
   07D290   Module 'Obj\reflection.9A16C2FF.obj'
   07D2A0   Module 'Obj\typelibrary.5932841B.obj'
   07D2B0   Module 'Obj\registry.9E3F9277.obj'
   07D2C0   Module 'Obj\std.8408A9CC.obj'
   07D2D0   Module 'Obj\inputstreamsupport.CF2B28B0.obj'
   07D2E0   Module 'Obj\outputstreamsupport.DD5669F3.obj'
   07D2F0   Module 'Obj\stream.6FDF4122.obj'
   07D300   Module 'Obj\string.C639126F.obj'
   07D310   Module 'Obj\string8.ACF7B790.obj'

	     ------- Names by value Map ---------
Frame 001000   Size 045050.  Name=<   .text>, 	Chars=60000020h. [CER]
001000:000000 044E70   .text::CODE::<no group> F=4
--- From 'Obj\varm.40D08892.obj'
01:00001000 ?new@varM_unsigned@@SAXQAV1@@@Z  (Idle)
01:00001014 ?new@varM_unsigned@@SAXQAV1@@I@Z 
01:0000103C ?newModel_unary@varM_unsigned@@SAXQAV1@@QAVvarM@@@IX@Z  (Idle)
01:0000106C ?newModel_binary@varM_unsigned@@SAXQAV1@@QAVvarM@@@I1X@Z  (Idle)
01:000010A4 ?_add@varM_unsigned@@SAXQAV1@@IPAI@Z 
01:000010D4 ?_sub@varM_unsigned@@SAXQAV1@@IPAI@Z 
01:00001104 ?_max@varM_unsigned@@SAXQAV1@@IPAI@Z 
01:00001140 ?_min@varM_unsigned@@SAXQAV1@@IPAI@Z 
01:0000117C ?_inc@varM_unsigned@@SAXQAV1@@PAI@Z 
01:000011B8 ?_dec@varM_unsigned@@SAXQAV1@@PAI@Z 
01:000011F4 ?_setF@varM_unsigned@@SAXQAV1@@IPAI@Z 
01:00001208 ?add@varM_unsigned@@SAXQAV1@@I@Z 
01:00001228 ?sub@varM_unsigned@@SAXQAV1@@I@Z 
01:00001248 ?max@varM_unsigned@@SAXQAV1@@I@Z 
01:00001268 ?min@varM_unsigned@@SAXQAV1@@I@Z 
01:00001288 ?inc@varM_unsigned@@SAXQAV1@@@Z 
01:000012A4 ?dec@varM_unsigned@@SAXQAV1@@@Z 
01:000012C0 ?_new@varM_unsigned@@SAXPAPAV1@@@Z  (Idle)
01:000012E8 ?_new@varM_unsigned@@SAXIPAPAV1@@@Z  (Idle)
01:00001310 ?_newModel_unary@varM_unsigned@@SAXQAVvarM@@@IXPAPAV1@@@Z  (Idle)
01:0000133C ?_newModel_binary@varM_unsigned@@SAXQAVvarM@@@I0XPAPAV1@@@Z  (Idle)
01:0000136C ?new@varM_reference@@SAXQAV1@@PAXQAVrTypeLibrary@TypeLibraries@RunTime@VIP@@PAUreference_struct@1/1@PAX@Z  (Idle)
01:00001380 ?_value@varM_reference@@SAXQAVvarM@@@PAXPAPAX@Z 
01:00001398 ?value@varM_reference@@SAXQAVvarM@@@PAXPAX@Z 
01:000013E0 ?modified@varM_reference@@SGQAVevent0@@@PBUhandle@@QAVvarM@@@PAX@Z 
01:000013F8 ?_new@varM_reference@@SAXQAVrTypeLibrary@TypeLibraries@RunTime@VIP@@PAUreference_struct@1/1@PAXPAPAVvarM@@@PAPAX@Z  (Idle)
01:00001428 ?_object_typelib_initializer@varM_reference@@SGXQAV1@@PAXQAVrTypeLibrary@TypeLibraries@RunTime@VIP@@@Z 
01:00001440 ?new@varM_optional@@SAXQAV1@@PAXQAVrTypeLibrary@TypeLibraries@RunTime@VIP@@@Z  (Idle)
01:00001484 ?new@varM_optional@@SAXQAV1@@PAXQAVrTypeLibrary@TypeLibraries@RunTime@VIP@@PAX@Z  (Idle)
01:000014D8 ?_tryGet@varM_optional@@SAXQAV1@@PAXPAPAX@Z 
01:00001520 ?set@varM_optional@@SAXQAV1@@PAXPAX@Z 
01:00001548 ?unset@varM_optional@@SAXQAV1@@PAX@Z 
01:0000155C ?_new@varM_optional@@SAXQAVrTypeLibrary@TypeLibraries@RunTime@VIP@@PAPAV1@@PAPAX@Z  (Idle)
01:00001588 ?_new@varM_optional@@SAXQAVrTypeLibrary@TypeLibraries@RunTime@VIP@@PAXPAPAV1@@PAPAX@Z  (Idle)
01:000015B8 ?_object_typelib_initializer@varM_optional@@SGXQAV1@@PAXQAVrTypeLibrary@TypeLibraries@RunTime@VIP@@@Z 
01:000015D0 ?_mk_tl_0_varM{@Term}$imp$@varM_optional@@SGQAVrTypeLibrary@TypeLibraries@RunTime@VIP@@QAV1@@PAX@Z 
01:0000160C ?new@varM_integer@@SAXQAV1@@@Z  (Idle)
01:00001620 ?new@varM_integer@@SAXQAV1@@H@Z 
01:00001648 ?newModel_unary@varM_integer@@SAXQAV1@@QAVvarM@@@HX@Z  (Idle)
01:00001678 ?newModel_binary@varM_integer@@SAXQAV1@@QAVvarM@@@H1X@Z  (Idle)
01:000016B0 ?_add@varM_integer@@SAXQAV1@@HPAH@Z 
01:000016DC ?_sub@varM_integer@@SAXQAV1@@HPAH@Z 
01:00001708 ?_max@varM_integer@@SAXQAV1@@HPAH@Z 
01:00001744 ?_min@varM_integer@@SAXQAV1@@HPAH@Z 
01:00001780 ?_inc@varM_integer@@SAXQAV1@@PAH@Z 
01:000017B8 ?_dec@varM_integer@@SAXQAV1@@PAH@Z 
01:000017F0 ?_setF@varM_integer@@SAXQAV1@@HPAH@Z 
01:00001804 ?add@varM_integer@@SAXQAV1@@H@Z 
01:00001824 ?sub@varM_integer@@SAXQAV1@@H@Z 
01:00001844 ?max@varM_integer@@SAXQAV1@@H@Z 
01:00001864 ?min@varM_integer@@SAXQAV1@@H@Z 
01:00001884 ?inc@varM_integer@@SAXQAV1@@@Z 
01:000018A0 ?dec@varM_integer@@SAXQAV1@@@Z 
--- From 'Obj\arraym_inline.0A13D119.obj'
01:000018BC ?_new@varM_integer@@SAXPAPAV1@@@Z 
--- From 'Obj\varm.40D08892.obj'
01:000018E4 ?_new@varM_integer@@SAXHPAPAV1@@@Z  (Idle)
01:0000190C ?_newModel_unary@varM_integer@@SAXQAVvarM@@@HXPAPAV1@@@Z  (Idle)
01:00001938 ?_newModel_binary@varM_integer@@SAXQAVvarM@@@H0XPAPAV1@@@Z  (Idle)
01:00001968 ?new@varM_boolean@@SAXQAV1@@@Z  (Idle)
01:0000197C ?new@varM_boolean@@SAXQAV1@@PAUboolean_struct@_builtIn@@@Z 
01:000019A4 ?newModel_and@varM_boolean@@SAXQAV1@@QAVvarM@@@PAUboolean_struct@_builtIn@@1@Z  (Idle)
01:000019DC ?newModel_or@varM_boolean@@SAXQAV1@@QAVvarM@@@PAUboolean_struct@_builtIn@@1@Z  (Idle)
01:00001A14 ?newModel_xor@varM_boolean@@SAXQAV1@@QAVvarM@@@PAUboolean_struct@_builtIn@@1@Z  (Idle)
01:00001A4C ?newModel_not@varM_boolean@@SAXQAV1@@QAVvarM@@@PAUboolean_struct@_builtIn@@@Z  (Idle)
01:00001A7C ?and_@varM_boolean@@SAXQAV1@@PAUboolean_struct@_builtIn@@@Z 
01:00001A9C ?or_@varM_boolean@@SAXQAV1@@PAUboolean_struct@_builtIn@@@Z 
01:00001ABC ?xor@varM_boolean@@SAXQAV1@@PAUboolean_struct@_builtIn@@@Z 
01:00001B00 ?not_@varM_boolean@@SAXQAV1@@@Z 
01:00001B40 ?isTrue@varM_boolean@@SAXQAV1@@@Z 
01:00001B68 ?isFalse@varM_boolean@@SAXQAV1@@@Z 
01:00001B90 ?setTrue@varM_boolean@@SAXQAV1@@@Z 
01:00001BA4 ?setFalse@varM_boolean@@SAXQAV1@@@Z 
01:00001BB8 ?_new@varM_boolean@@SAXPAPAV1@@@Z  (Idle)
01:00001BE0 ?_new@varM_boolean@@SAXPAUboolean_struct@_builtIn@@PAPAV1@@@Z  (Idle)
01:00001C08 ?_newModel_and@varM_boolean@@SAXQAVvarM@@@PAUboolean_struct@_builtIn@@0PAPAV1@@@Z  (Idle)
01:00001C34 ?_newModel_or@varM_boolean@@SAXQAVvarM@@@PAUboolean_struct@_builtIn@@0PAPAV1@@@Z  (Idle)
01:00001C60 ?_newModel_xor@varM_boolean@@SAXQAVvarM@@@PAUboolean_struct@_builtIn@@0PAPAV1@@@Z  (Idle)
01:00001C8C ?_newModel_not@varM_boolean@@SAXQAVvarM@@@PAUboolean_struct@_builtIn@@PAPAV1@@@Z  (Idle)
01:00001CB4 ?new@varM@@SAXQAV1@@PAXQAVrTypeLibrary@TypeLibraries@RunTime@VIP@@PAX@Z 
01:00001CC8 ?anonymous$o0$1$newmodel_unary/2np$varM{@Term}@varM@@SAXPAUanonymous$o0$1$newmodel_unary/2np$varM{@Term}c_struct@1/1@QAV1@@PAX@Z 
01:00001D24 ?anonymous$o0$2$newmodel_unary/2np$varM{@Term}@varM@@SAXPAUanonymous$o0$2$newmodel_unary/2np$varM{@Term}c_struct@1/1@PBUhandle@@@Z 
01:00001D88 ?newModel_unary@varM@@SAXQAV1@@PAXQAVrTypeLibrary@TypeLibraries@RunTime@VIP@@0X@Z 
01:00001E90 ?anonymous$o0$1$newmodel_binary/3np$varM{@Term}@varM@@SAXPAUanonymous$o0$1$newmodel_binary/3np$varM{@Term}c_struct@1/1@QAV1@@PAX@Z 
01:00001F08 ?anonymous$o0$2$newmodel_binary/3np$varM{@Term}@varM@@SAXPAUanonymous$o0$2$newmodel_binary/3np$varM{@Term}c_struct@1/1@PBUhandle@@@Z 
01:00001F74 ?newModel_binary@varM@@SAXQAV1@@PAXQAVrTypeLibrary@TypeLibraries@RunTime@VIP@@00X@Z 
01:000020D0 ?modified@varM@@SGQAVevent0@@@PBUhandle@@QAV1@@PAX@Z 
01:0000213C ?_value@varM@@SAXQAV1@@PAXPAPAX@Z 
01:00002150 ?value@varM@@SAXQAV1@@PAXPAX@Z 
01:00002178 ?plainSet@varM@@SAXQAV1@@PAXPAX@Z 
01:0000218C ?listenerSet@varM@@SAXQAV1@@PAXPAX@Z 
01:000021D4 ?_new@varM@@SAXQAVrTypeLibrary@TypeLibraries@RunTime@VIP@@PAXPAPAV1@@PAPAX@Z  (Idle)
01:00002204 ?_newModel_unary@varM@@SAXQAVrTypeLibrary@TypeLibraries@RunTime@VIP@@QAV1@@PAXXPAPAV1@@PAPAX@Z  (Idle)
01:0000223C ?_newModel_binary@varM@@SAXQAVrTypeLibrary@TypeLibraries@RunTime@VIP@@QAV1@@PAX1XPAPAV1@@PAPAX@Z  (Idle)
01:0000227C ?_object_typelib_initializer@varM@@SGXQAV1@@PAXQAVrTypeLibrary@TypeLibraries@RunTime@VIP@@@Z 
01:00002294 ?_object_facts_initializer@varM@@SGXQAV1@@PAX@Z 
01:0000235C varM_unsigned?_initObject@@@QAGXQAV1@H@Z 
01:0000238C ?@create_object@varM_unsigned@@SGQAV1@@XZ 
01:000023A8 varM_unsigned?_InternalFinalizer@@@QAGXQAV1@@Z 
01:000023C0 varM_reference{@Term}?_initObject@@@QAGXQAV1@H@Z 
01:000023E4 ?@create_object@varM_reference@@SGQAV1@@PAXQAVrTypeLibrary@TypeLibraries@RunTime@VIP@@@Z 
01:00002408 varM_reference{@Term}?_InternalFinalizer@@@QAGXQAV1@@Z 
01:0000247C varM_optional{@Term}?_initObject@@@QAGXQAV1@H@Z 
01:000024C8 ?@create_object@varM_optional@@SGQAV1@@PAXQAVrTypeLibrary@TypeLibraries@RunTime@VIP@@@Z 
01:000024EC varM_optional{@Term}?_InternalFinalizer@@@QAGXQAV1@@Z 
01:00002584 varM_integer?_initObject@@@QAGXQAV1@H@Z 
01:000025B4 ?@create_object@varM_integer@@SGQAV1@@XZ 
01:000025D0 varM_integer?_InternalFinalizer@@@QAGXQAV1@@Z 
01:00002668 varM_boolean?_initObject@@@QAGXQAV1@H@Z 
01:00002698 ?@create_object@varM_boolean@@SGQAV1@@XZ 
01:000026B4 varM_boolean?_InternalFinalizer@@@QAGXQAV1@@Z 
01:000026CC varM{@Term}?_initObject@@@QAGXQAV1@H@Z 
01:00002700 ?@create_object@varM@@SGQAV1@@PAXQAVrTypeLibrary@TypeLibraries@RunTime@VIP@@@Z 
01:00002724 varM{@Term}?_InternalFinalizer@@@QAGXQAV1@@Z 
--- From 'Obj\vpidomains.05891DA9.obj'
01:00002730 ?_toFont_logfont@vpiDomains@@SAXPAUlogfont_struct@gui_native@@AAU4@@Z  (Idle)
01:000027D8 ?_fromFont_logfont@vpiDomains@@SAXPBU2@PAPAUlogfont_struct@gui_native@@@Z  (Idle)
--- From 'Obj\console.93C0DBD8.obj'
01:000027F0 ?_getStdHandle@console_api@@SAXIAAUfileHandle@@@Z 
--- From 'Obj\console_api.63955AF5.obj'
01:00002834 ?setStdHandle@console_api@@SAXIPBUfileHandle@@@Z  (Idle)
01:00002874 ?addConsoleCtrlHandler@console_api@@SAXX@Z  (Idle)
01:000028B4 ?removeConsoleCtrlHandler@console_api@@SAXX@Z  (Idle)
--- From 'Obj\console.93C0DBD8.obj'
01:000028F4 ?setConsoleCP@console_api@@SAXPBUcodePage@@@Z 
01:00002930 ?setConsoleOutputCP@console_api@@SAXPBUcodePage@@@Z 
--- From 'Obj\exe.CB067240.obj'
01:00002970 ?hInstance@exe_api@@SGPBUhModule@@XZ 
--- From 'Obj\exe_api.BB59C7F0.obj'
01:0000299C ?hInstanceExe@exe_api@@SGPBUhModule@@XZ 
--- From 'Obj\exe.CB067240.obj'
01:000029B4 ?_getModuleNameByAddress@exe_api@@SAXPBUhModule@core@@PAPB_W@Z 
--- From 'Obj\exe_api.BB59C7F0.obj'
01:00002A70 ?_isOSConsoleApplication@exe_api@@SAXPB_WPAPAUboolean_struct@_builtIn@@@Z  (Idle)
--- From 'Obj\exe.CB067240.obj'
01:00002C40 ?run@exe_api@@SAXXPAUrunMode_struct@1@@Z 
--- From 'Obj\exe_api.BB59C7F0.obj'
01:00002DB8 ?coInitialize@exe_api@@SAXPAU?$__packedList_struct@UcoInit@@@@@Z  (Idle)
01:00002E58 ?coUninitialize@exe_api@@SAXXZ  (Idle)
01:00002E64 ?_toCoInitFlag@exe_api@@SAXPAU?$__packedList_struct@UcoInit@@@@PAI@Z 
01:00002EC0 ?_coInitMap@exe_api@@SAXPAUcoInit_struct@1@PAI@Z 
--- From 'Obj\filesystem_api.D2434073.obj'
01:00002F00 _GetFileInformationByHandleEx@16  (Idle)
--- From 'Obj\filesystem.AD950C87.obj'
01:00002F24 _GetFinalPathNameByHandleW@16 
--- From 'Obj\filesystem_api.D2434073.obj'
01:00002F48 ?fileAttributeCorrespondence@fileSystem_api@@SAXPAUfileAttributeAtom_struct@1@PAI@Z  (Idle)
--- From 'Obj\filesystem.AD950C87.obj'
01:00002FC8 ?_toApiAttributes@fileSystem_api@@SAXPAU?$__packedList_struct@UfileAttributeAtom@@@@PAI@Z 
--- From 'Obj\filesystem_api.D2434073.obj'
01:00002FE4 ?_toApiAttributes@fileSystem_api@@SAXPAU?$__packedList_struct@UfileAttributeAtom@@@@IPAI@Z 
--- From 'Obj\filesystem.AD950C87.obj'
01:00003040 ?_fromApiAttributes@fileSystem_api@@SAXIPAPAU?$__packedList_struct@UfileAttributeAtom@@@@@Z 
--- From 'Obj\filesystem_api.D2434073.obj'
01:000030A4 ?_convertToFileAttribute_nd@fileSystem_api@@SAXIPAPAUfileAttributeAtom_struct@1@@Z 
--- From 'Obj\filesystem.AD950C87.obj'
01:000030E4 ?_createFile@fileSystem_api@@SAXPB_WIPAUaccessPermit_struct@1@IPAU?$__packedList_struct@UfileAttributeAtom@@@@AAUfileHandle@@@Z 
--- From 'Obj\filesystem_api.D2434073.obj'
01:00003124 ?_toShareModeAPI@fileSystem_api@@SAXPAUaccessPermit_struct@1@PAI@Z 
01:00003160 ?_createFile_flag@fileSystem_api@@SAXPB_WIIIIAAUfileHandle@@@Z 
--- From 'Obj\filesystem.AD950C87.obj'
01:000031AC ?_getFileSize@fileSystem_api@@SAXPBUfileHandle@@PAAAUfileSize@@@Z 
01:00003204 ?_setFilePointer@fileSystem_api@@SAXPBUfileHandle@@PA_JIPAAAUfileSize@@@Z 
01:0000327C ?getVolumeInformation@fileSystem_api@@SAXPB_WPAPB_WPAI1@Z 
01:00003350 ?raise_cannotCreate_explicit@fileSystem_api@@SAXPAUprogramPoint_struct@core@@PB_WPBUhResult@@@Z 
--- From 'Obj\filesystem_api.D2434073.obj'
01:00003524 ?raise_cannotGetFileSize_explicit@fileSystem_api@@SAXPAUprogramPoint_struct@core@@PBUfileHandle@@PBUhResult@@@Z 
01:00003650 ?raise_cannotSetFilePointer_explicit@fileSystem_api@@SAXPAUprogramPoint_struct@core@@PBUfileHandle@@PA_JIPBUhResult@@@Z 
--- From 'Obj\filesystem.AD950C87.obj'
01:0000381C ?crlf_lf@fileSystem_api@@SAXPAXHPAUboolean_struct@_builtIn@@PAPAXAAUbyteCount@@PAPAU?$__packedList_struct@U4@@@PAPAU23@@Z 
--- From 'Obj\filesystem_api.D2434073.obj'
01:000038A0 ?prepareSearch@fileSystem_api@@SAXPAXHAAUbyteCount@@PAPAUboolean_struct@_builtIn@@@Z 
01:00003924 ?searchCRLF@fileSystem_api@@SAXPAXPBUbyteCount@@1AAU2@PAPAU?$__packedList_struct@U2@@@3@Z 
01:00003A0C ?_tryGetPositionOfCRLF@fileSystem_api@@SAXPAXHPBUbyteCount@@AAU2@@Z 
01:00003A88 ?_convertCRLF_IfNeeded@fileSystem_api@@SAXPAUboolean_struct@_builtIn@@PAXPBUbyteCount@@PAU?$__packedList_struct@U4@@@2PAPAX@Z 
01:00003BDC ?checkFirstPos@fileSystem_api@@SAXPBUbyteCount@@PAU?$__packedList_struct@U2@@@PAXPAPAX3PAPAU?$__packedList_struct@U2@@@@Z 
01:00003C4C ?_mem_move@fileSystem_api@@SAXPAXPAXPBUbyteCount@@PAPAX@Z 
01:00003C74 ?_mem_copy@fileSystem_api@@SAXPAXPAXPBUbyteCount@@PAPAX@Z 
01:00003C9C ?convertCRLF_LF@fileSystem_api@@SAXXPAXPAXPBUbyteCount@@PAU?$__packedList_struct@U2@@@@Z 
--- From 'Obj\filesystem.AD950C87.obj'
01:00003D34 ?crlf_lf@fileSystem_api@@SAXPB_W@Z 
--- From 'Obj\filesystem_api.D2434073.obj'
01:00003D48 ?do_CRLF_LF@fileSystem_api@@SAXPB_W0@Z 
--- From 'Obj\filesystem.AD950C87.obj'
01:00003DDC ?lf_crlf@fileSystem_api@@SAXPAXPBUbyteCountOptional@@PAPAXAAUbyteCount@@@Z 
--- From 'Obj\filesystem_api.D2434073.obj'
01:00003E50 ?_getSize@fileSystem_api@@SAXPB_WPBUbyteCountOptional@@AAUbyteCount@@@Z 
01:00003E90 ?searchLineFeeds@fileSystem_api@@SAXPAXPBUbyteCount@@1AAU2@PAPAU?$__packedList_struct@U2@@@3@Z 
01:00003F50 ?_convertToCRLF_IfNeeded@fileSystem_api@@SAXPAXPBUbyteCount@@PAU?$__packedList_struct@U2@@@1PAPAX@Z 
01:00003FB4 ?convertToCRLF@fileSystem_api@@SAXPAXPAXPBUbyteCount@@PAU?$__packedList_struct@U2@@@@Z 
--- From 'Obj\filesystem.AD950C87.obj'
01:00004054 ?removeDirectory@fileSystem_api@@SAXPB_W@Z 
01:000040F0 ?createDirectory@fileSystem_api@@SAXPB_WPAUsecurity_Attributes_struct@windowsAPI@@@Z 
01:00004190 ?moveFile@fileSystem_api@@SAXPB_W0@Z 
01:00004284 ?setVolumeLabel@fileSystem_api@@SAXPB_W0@Z 
01:00004378 ?getDiskFreeSpaceEx@fileSystem_api@@SAXPB_WPAAAUfileSize@@11@Z 
--- From 'Obj\filesystem_api.D2434073.obj'
01:00004470 ?_anonymous$c0$1$getcurrentdirectory/0nf$fileSystem_api@1@SAXPB_WPBUcharCount@@AAU2@@Z 
--- From 'Obj\filesystem.AD950C87.obj'
01:00004488 ?_getCurrentDirectory@fileSystem_api@@SAXPAPB_W@Z 
01:000044C0 ?setCurrentDirectory@fileSystem_api@@SAXPB_W@Z 
--- From 'Obj\filesystem_api.D2434073.obj'
01:000045CC ?_anonymous$c0$1$getshortpathname/1nf$fileSystem_api@1@SAXPAUanonymous$c0$1$getshortpathname/1nf$fileSystem_apic_struct@1@PB_WPBUcharCount@@AAU4@@Z 
--- From 'Obj\filesystem.AD950C87.obj'
01:000045F0 ?_getShortPathName@fileSystem_api@@SAXPB_WPAPB_W@Z 
--- From 'Obj\filesystem_api.D2434073.obj'
01:0000469C ?_anonymous$c0$1$getlongpathname/1nf$fileSystem_api@1@SAXPAUanonymous$c0$1$getlongpathname/1nf$fileSystem_apic_struct@1@PB_WPBUcharCount@@AAU4@@Z 
--- From 'Obj\filesystem.AD950C87.obj'
01:000046C0 ?_getLongPathName@fileSystem_api@@SAXPB_WPAPB_W@Z 
01:0000476C ?_getFileAttributesEx@fileSystem_api@@SAXPB_WPAPAUfileAttributesInfo_struct@fileSystem_native@@@Z 
--- From 'Obj\filesystem_api.D2434073.obj'
01:00004880 ?_anonymous$c0$1$gettemppath/0nf$fileSystem_api@1@SAXPB_WPBUcharCount@@AAU2@@Z 
--- From 'Obj\filesystem.AD950C87.obj'
01:00004898 ?_getTempPath@fileSystem_api@@SAXPAPB_W@Z 
01:000048D0 ?findClose@fileSystem_api@@SAXPBUsearchHandle@fileSystem_native@@@Z 
--- From 'Obj\filesystem_api.D2434073.obj'
01:00004918 ?raise_nativeCallException_explicit@fileSystem_api@@SAXPAUprogramPoint_struct@core@@PBUhResult@@PAU?$__packedList_struct@UnamedValue@@@@@Z 
01:00004944 ?_firstSizeThenOperation@fileSystem_api@@SAXPB_WPAU?$__packedList_struct@UnamedValue@@@@XPAPB_W@Z 
--- From 'Obj\filesystem.AD950C87.obj'
01:000049F8 ?readFile@fileSystem_api@@SAXPBUfileHandle@@PAXPBUbyteCount@@AAU3@@Z 
01:00004A0C ?readFile@fileSystem_api@@SAXPBUfileHandle@@PAXPBUbyteCount@@AAU3@PBUhResult@@@Z 
--- From 'Obj\filesystem_api.D2434073.obj'
01:00004A5C ?readFile_pipe@fileSystem_api@@SAXPBUfileHandle@@PAXPBUbyteCount@@AAU3@@Z  (Idle)
01:00004A70 ?readFile_overlapped@fileSystem_api@@SAXPBUfileHandle@@PAXPBUbyteCount@@PAUoverlapped_struct@fileSystem_native@@@Z  (Idle)
01:00004A84 ?readFile_overlapped@fileSystem_api@@SAXPBUfileHandle@@PAXPBUbyteCount@@PAUoverlapped_struct@fileSystem_native@@PBUhResult@@@Z 
--- From 'Obj\filesystem.AD950C87.obj'
01:00004ADC ?writeFile@fileSystem_api@@SAXPBUfileHandle@@PAXPBUbyteCount@@AAU3@@Z 
--- From 'Obj\filesystem_api.D2434073.obj'
01:00004B24 ?writeFile_overlapped@fileSystem_api@@SAXPBUfileHandle@@PAXPBUbyteCount@@PAUoverlapped_struct@fileSystem_native@@@Z  (Idle)
01:00004B38 ?writeFile_overlapped@fileSystem_api@@SAXPBUfileHandle@@PAXPBUbyteCount@@PAUoverlapped_struct@fileSystem_native@@PBUhResult@@@Z 
--- From 'Obj\filesystem.AD950C87.obj'
01:00004B90 ?closeHandle@fileSystem_api@@SAXPBUhandle@@@Z 
--- From 'Obj\filesystem_api.D2434073.obj'
01:00004BCC ?closeHandle_robust@fileSystem_api@@SAXPBUhandle@@@Z  (Idle)
--- From 'Obj\filesystem.AD950C87.obj'
01:00004BDC ?flushFileBuffers@fileSystem_api@@SAXPBUfileHandle@@@Z 
--- From 'Obj\multithread_api.6656783C.obj'
01:00004C18 ?_duplicateHandle@fileSystem_api@@SAXPBUprocessHandle@windowsAPI@@PBUhandle@@0IHIAAU4@@Z 
--- From 'Obj\filesystem_api.D2434073.obj'
01:00004C68 ?tryGetOverlappedResult_wait@fileSystem_api@@SAXPBUfileHandle@@PAUoverlapped_struct@fileSystem_native@@AAUbyteCount@@@Z  (Idle)
01:00004C88 ?tryGetOverlappedResult_noWait@fileSystem_api@@SAXPBUfileHandle@@PAUoverlapped_struct@fileSystem_native@@AAUbyteCount@@@Z  (Idle)
01:00004CA4 ?getOverlappedResult2@fileSystem_api@@SAXPBUfileHandle@@PAUoverlapped_struct@fileSystem_native@@AAUbyteCount@@PBUbooleanInt@@PBUhResult@@@Z 
01:00004CF4 ?_createIoCompletionPort@fileSystem_api@@SAXIAAUioCompletionPort@@@Z  (Idle)
01:00004D24 ?_createIoCompletionPort@fileSystem_api@@SAXIPBUhandle@@PAXAAUioCompletionPort@@@Z  (Idle)
01:00004D5C ?attachIoCompletionPort@fileSystem_api@@SAXPBUioCompletionPort@@PBUhandle@@PAX@Z  (Idle)
01:00004D80 ?_createIoCompletionPort2@fileSystem_api@@SAXPBUhandle@@PBUioCompletionPort@@PAXIAAU3@@Z 
01:00004E00 ?tryGetQueuedCompletionStatus@fileSystem_api@@SAXPBUioCompletionPort@@AAUbyteCount@@PAPAXPAPAUoverlapped_struct@fileSystem_native@@I@Z  (Idle)
01:00004E64 ?getQueuedCompletionStatus@fileSystem_api@@SAXPBUioCompletionPort@@AAUbyteCount@@PAPAXPAPAUoverlapped_struct@fileSystem_native@@@Z  (Idle)
01:00004EC8 ?checkQueuedCompletionStatusException_explicit@fileSystem_api@@SAXPAUprogramPoint_struct@core@@PBUhResult@@PBUbyteCount@@PAXPAUoverlapped_struct@fileSystem_native@@@Z 
01:00005050 ?_tryGetQueuedCompletionStatus_hResult@fileSystem_api@@SAXPBUioCompletionPort@@AAUbyteCount@@PAPAXPAPAUoverlapped_struct@fileSystem_native@@IAAU6@@Z 
01:0000508C ?_getQueuedCompletionStatus_hResult@fileSystem_api@@SAXPBUioCompletionPort@@AAUbyteCount@@PAPAXPAPAUoverlapped_struct@fileSystem_native@@AAU6@@Z 
01:000050DC ?_getQueuedCompletionStatus_hResult2_explicit@fileSystem_api@@SAXPAUprogramPoint_struct@core@@PBUioCompletionPort@@AAUbyteCount@@PAPAXPAPAUoverlapped_struct@fileSystem_native@@IAAUhResult@@@Z 
01:00005178 ?getQueuedCompletionStatusException_explicit@fileSystem_api@@SAXPAUprogramPoint_struct@core@@PBUhResult@@PAU?$__packedList_struct@UnamedValue@@@@@Z 
01:00005198 ?postQueuedCompletionStatus@fileSystem_api@@SAXPBUioCompletionPort@@PAUoverlapped_struct@fileSystem_native@@@Z  (Idle)
01:000051B0 ?postQueuedCompletionStatus@fileSystem_api@@SAXPBUioCompletionPort@@PAUoverlapped_struct@fileSystem_native@@PBUbyteCount@@@Z  (Idle)
01:000051C4 ?postQueuedCompletionStatus@fileSystem_api@@SAXPBUioCompletionPort@@PAUoverlapped_struct@fileSystem_native@@PBUbyteCount@@PAX@Z 
01:00005208 ?readDirectoryChanges@fileSystem_api@@SAXPBUfileHandle@@PAXPBUbyteCount@@PAUboolean_struct@_builtIn@@IAAU3@@Z  (Idle)
01:00005220 ?readDirectoryChanges_overlapped@fileSystem_api@@SAXPBUfileHandle@@PAXPBUbyteCount@@PAUboolean_struct@_builtIn@@IPAUoverlapped_struct@fileSystem_native@@@Z  (Idle)
01:0000524C ?readDirectoryChanges_overlapped@fileSystem_api@@SAXPBUfileHandle@@PAXPBUbyteCount@@PAUboolean_struct@_builtIn@@IPAUoverlapped_struct@fileSystem_native@@X@Z  (Idle)
01:0000527C ?readDirectoryChanges2@fileSystem_api@@SAXPBUfileHandle@@PAXPBUbyteCount@@PAUboolean_struct@_builtIn@@IAAU3@PAUoverlapped_struct@fileSystem_native@@X@Z 
01:000052E0 ?cancelIo@fileSystem_api@@SAXPBUfileHandle@@@Z  (Idle)
01:0000531C ?_readFile_overlapped@fileSystem_api@@SAXPBUfileHandle@@PAXPBUbyteCount@@PAUoverlapped_struct@fileSystem_native@@PAPAUboolean_struct@_builtIn@@@Z  (Idle)
01:00005334 ?_writeFile_overlapped@fileSystem_api@@SAXPBUfileHandle@@PAXPBUbyteCount@@PAUoverlapped_struct@fileSystem_native@@PAPAUboolean_struct@_builtIn@@@Z  (Idle)
01:0000534C ?fileAttributeCorrespondence@fileSystem_api@@SAXPAPAUfileAttributeAtom_struct@1@I@Z  (Idle)
01:00005428 ?fileAttributeCorrespondence@fileSystem_api@@SAXPAPAUfileAttributeAtom_struct@1@PAI@Z 
01:00005554 ?fileAttributeCorrespondence@fileSystem_api@@SAXPAUfileAttributeAtom_struct@1@I@Z  (Idle)
--- From 'Obj\gui_api.660F5D37.obj'
01:00005610 ?_createDialog@gui_native@@SAXPBUhModule@@HPBUhwnd@@XAAU3@@Z  (Idle)
01:00005630 ?_createDialogIndirect@gui_native@@SAXPBUhModule@@PAUdlgTemplate_struct@1@PBUhwnd@@XAAU5@@Z  (Idle)
01:00005650 ?_createDialog@gui_native@@SAXPBUhModule@@PB_WPBUhwnd@@XAAU3@@Z  (Idle)
01:00005670 ?_createDialogIndirect@gui_native@@SAXPBUhModule@@PAUdlgTemplateEx_struct@1@PBUhwnd@@XAAU5@@Z  (Idle)
01:00005690 _AddClipboardFormatListener@4  (Idle)
01:000056B4 _MenuItemFromPoint@16  (Idle)
01:000056D8 ?setScrollRange@gui_api@@SAXPBUhwnd@@HHHPAUboolean_struct@_builtIn@@@Z  (Idle)
01:00005734 ?getScrollRange@gui_api@@SAXPBUhwnd@@HPAHPAH@Z  (Idle)
01:00005778 ?_getScrollInfo@gui_api@@SAXPBUhwnd@@HIPAPAUscrollInfo_struct@1@@Z  (Idle)
01:00005840 ?_setScrollInfo@gui_api@@SAXPBUhwnd@@HPAUscrollInfo_struct@1@PAUboolean_struct@_builtIn@@IPAH@Z  (Idle)
01:000058C8 ?_scrollWindowEx@gui_api@@SAXPBUhwnd@@HHPAUrct_struct@vpiDomains@@3PBUhRgn@@PAPAU34@IPAH@Z  (Idle)
01:0000593C ?_scrollWindowEx@gui_api@@SAXPBUhwnd@@HHPAUrct_struct@vpiDomains@@3PBUhRgn@@IPAH@Z  (Idle)
01:00005990 ?_getUpdateRgn@gui_api@@SAXPBUhwnd@@PBUhRgn@@PAUboolean_struct@_builtIn@@PAH@Z  (Idle)
01:000059EC ?_tryGetUpdateRect@gui_api@@SAXPBUhwnd@@PAUboolean_struct@_builtIn@@PAPAUrct_struct@vpiDomains@@@Z  (Idle)
01:00005A3C ?_makePoints@gui_api@@SAXPBUlParam@gui_native@@PAPAUpnt_struct@vpiDomains@@@Z  (Idle)
01:00005A94 ?getInteger16@gui_api@@SAXPBUunsignedNative@@AAUinteger16@@1@Z  (Idle)
01:00005ACC ?getUnsigned16@gui_api@@SAXPBUunsignedNative@@AAUunsigned16@@1@Z 
01:00005B08 ?_makeLParam@gui_api@@SAXPAUpnt_struct@vpiDomains@@AAUlParam@gui_native@@@Z  (Idle)
01:00005B88 ?_getWindowPlacement@gui_api@@SAXPBUhwnd@@PAPAUwindowPlacement_struct@1@@Z  (Idle)
01:00005C54 ?setWindowPlacement@gui_api@@SAXPBUhwnd@@PAUwindowPlacement_struct@1@@Z  (Idle)
01:00005D08 ?_getTextExtentPoint32@gui_api@@SAXPBUhDC@@PB_WPAPAUsize_struct@gui_native@@@Z  (Idle)
01:00005D3C ?_getTextExtentPoint32@gui_api@@SAXPBUhDC@@PB_WPBUcharCount@@PAPAUsize_struct@gui_native@@@Z 
01:00005DA8 ?_getTextMetrics@gui_api@@SAXPBUhDC@@PAPAUtextmetric_struct@gui_native@@@Z  (Idle)
01:00005E00 ?_registerClassEx@gui_api@@SAXIXHHPBUhModule@@PBUhIcon@@PBUhCursor@@PBUhBrush@@PB_W85AAUatom@@@Z  (Idle)
01:00005EF4 ?_createWindowEx@gui_api@@SAXIPB_W1IHHHHPBUhwnd@@PBUhMenu@@PBUhModule@@PAXAAU2@@Z  (Idle)
01:00005FB0 ?_mkDlgTemplate@gui_api@@SAXPAUdlgTemplate_struct@1@PAPAU2gui_native@@@Z  (Idle)
01:00006750 ?writeVarArray@gui_api@@SAXQAVoutputStream@@@PAUvarArray_struct@1@@Z 
01:0000687C ?align32@gui_api@@SAXQAVoutputStream@@@@Z 
01:00006940 ?_createDialogIndirectParam@gui_api@@SAXPBUhModule@@PAUdlgTemplate_struct@1@PBUhwnd@@XPBUlParam@@AAU5@@Z  (Idle)
01:000069A0 ?_beginPaint@gui_api@@SAXPBUhwnd@@PAPAUpaintStruct_struct@gui_native@@AAUhDC@@@Z  (Idle)
01:000069FC ?endPaint@gui_api@@SAXPBUhwnd@@PAUpaintStruct_struct@gui_native@@@Z  (Idle)
01:00006A10 ?_getClientRect@gui_api@@SAXPBUhwnd@@PAPAUrct_struct@vpiDomains@@@Z  (Idle)
01:00006A68 ?_getWindow_handle@gui_api@@SAXPBUhwnd@@HAAU3@@Z  (Idle)
01:00006B68 ?_setWindow_handle@gui_api@@SAXPBUhwnd@@HPBU3@AAU3@@Z  (Idle)
01:00006BBC ?_getWindow_integer@gui_api@@SAXPBUhwnd@@HPAH@Z  (Idle)
01:00006BEC ?_setWindow_integer@gui_api@@SAXPBUhwnd@@HHPAH@Z  (Idle)
01:00006C34 ?_getWindow_unsigned@gui_api@@SAXPBUhwnd@@HPAI@Z  (Idle)
01:00006C64 ?_setWindow_unsigned@gui_api@@SAXPBUhwnd@@HIPAI@Z  (Idle)
01:00006CAC ?_getWindow_style@gui_api@@SAXPBUhwnd@@PAI@Z  (Idle)
01:00006CC8 ?setWindow_style@gui_api@@SAXPBUhwnd@@I@Z  (Idle)
01:00006CE8 ?_getWindow_exstyle@gui_api@@SAXPBUhwnd@@PAI@Z  (Idle)
01:00006D04 ?setWindow_exstyle@gui_api@@SAXPBUhwnd@@I@Z  (Idle)
01:00006D24 ?_getWindow_wndProc@gui_api@@SAXPBUhwnd@@PAX@Z  (Idle)
01:00006D4C ?_setWindow_wndProc@gui_api@@SAXPBUhwnd@@XPAX@Z  (Idle)
01:00006D74 ?_getClass_handle@gui_api@@SAXPBUhwnd@@HAAU3@@Z  (Idle)
01:00006DC4 ?_setClass_handle@gui_api@@SAXPBUhwnd@@HPBU3@AAU3@@Z  (Idle)
01:00006E18 ?_getClass_integer@gui_api@@SAXPBUhwnd@@HPAH@Z  (Idle)
01:00006E48 ?_setClass_integer@gui_api@@SAXPBUhwnd@@HHPAH@Z  (Idle)
01:00006E90 ?_getClass_unsigned@gui_api@@SAXPBUhwnd@@HPAI@Z  (Idle)
01:00006EC0 ?_setClass_unsigned@gui_api@@SAXPBUhwnd@@HIPAI@Z  (Idle)
01:00006F08 ?extTextOut@gui_api@@SAXPBUhDC@@HHIPAUrct_struct@vpiDomains@@PB_W@Z  (Idle)
01:00006F34 ?extTextOut@gui_api@@SAXPBUhDC@@HHIPAUrct_struct@vpiDomains@@PB_WPAX@Z  (Idle)
01:00006F68 ?extTextOut@gui_api@@SAXPBUhDC@@HHIPAUrct_struct@vpiDomains@@PB_WPBUcharCount@@PAX@Z 
01:00006FB8 ?invalidateRect@gui_api@@SAXPBUhwnd@@PAUrct_struct@vpiDomains@@PBUbooleanInt@@@Z  (Idle)
01:00006FFC ?invalidate@gui_api@@SAXPBUhwnd@@PBUbooleanInt@@@Z  (Idle)
01:00007014 ?bringWindowToTop@gui_api@@SAXPBUhwnd@@@Z  (Idle)
01:00007050 ?_tryGetForegroundWindow@gui_api@@SAXAAUhwnd@@@Z  (Idle)
01:00007070 ?_setForegroundWindow@gui_api@@SAXPBUhwnd@@PAPAUboolean_struct@_builtIn@@@Z  (Idle)
01:000070A0 ?_setFocus@gui_api@@SAXPBUhwnd@@AAU2@@Z  (Idle)
01:000070E4 ?_getParent@gui_api@@SAXPBUhwnd@@AAU2@@Z  (Idle)
01:00007128 ?_tryGetParent@gui_api@@SAXPBUhwnd@@AAU2@@Z  (Idle)
01:00007148 ?_setParent@gui_api@@SAXPBUhwnd@@0AAU2@@Z  (Idle)
01:0000718C ?_clientToScreen@gui_api@@SAXPBUhwnd@@PAUpnt_struct@vpiDomains@@PAPAU34@@Z  (Idle)
01:000071EC ?_screenToClient@gui_api@@SAXPBUhwnd@@PAUpnt_struct@vpiDomains@@PAPAU34@@Z  (Idle)
01:0000724C ?_alloc_pnt@gui_api@@SAXHHPAPAUpnt_struct@vpiDomains@@@Z 
01:00007278 ?adjustWindowRectEx@gui_api@@SAXPAUrct_struct@vpiDomains@@IPAUboolean_struct@_builtIn@@I@Z  (Idle)
01:000072D0 ?deleteObject@gui_api@@SAXPBUhandle@@@Z  (Idle)
01:000072E0 ?_deleteObject@gui_api@@SAXPBUhandle@@PAPAUboolean_struct@_builtIn@@@Z  (Idle)
01:000072F8 ?_selectObject@gui_api@@SAXPBUhDC@@PBUhandle@@AAU3@@Z  (Idle)
01:00007358 ?_selectObject_region@gui_api@@SAXPBUhDC@@PBUhandle@@PAI@Z  (Idle)
01:000073C4 ?selectObjectDeleteOld@gui_api@@SAXPBUhDC@@PBUhandle@@@Z  (Idle)
01:000073EC ?_createFontIndirect@gui_api@@SAXPAUlogfont_struct@gui_native@@AAUhFont@@@Z  (Idle)
01:0000743C ?_createAcceleratorTable@gui_api@@SAXPAU?$__packedList_struct@Uaccel@gui_native@@@@AAUhandle@@@Z  (Idle)
01:000074CC ?fillAccelTable@gui_api@@SAXPAXPAU?$__packedList_struct@Uaccel@gui_native@@@@@Z 
01:00007528 ?_allocMsg@gui_api@@SAXPAPAUmsg_struct@gui_native@@@Z  (Idle)
01:00007554 ?_getMessage_update@gui_api@@SAXPAUmsg_struct@gui_native@@PAPAUboolean_struct@_builtIn@@@Z  (Idle)
01:00007578 ?_getMessage_update@gui_api@@SAXPAUmsg_struct@gui_native@@PBUhwnd@@PAPAUboolean_struct@_builtIn@@@Z  (Idle)
01:00007598 ?_getMessage_update@gui_api@@SAXPAUmsg_struct@gui_native@@PBUhwnd@@IIPAPAUboolean_struct@_builtIn@@@Z 
01:00007600 ?releaseDC@gui_api@@SAXPBUhwnd@@PBUhDC@@@Z  (Idle)
01:00007614 ?_releaseDC_result@gui_api@@SAXPBUhwnd@@PBUhDC@@PAPAUboolean_struct@_builtIn@@@Z  (Idle)
01:00007638 ?_tryGetDC@gui_api@@SAXPBUhwnd@@AAUhDC@@@Z  (Idle)
01:00007658 ?_getDC@gui_api@@SAXPBUhwnd@@AAUhDC@@@Z  (Idle)
01:000076D0 ?_getMenu@gui_api@@SAXPBUhwnd@@AAUhMenu@@@Z  (Idle)
01:0000774C ?_tryGetMenu@gui_api@@SAXPBUhwnd@@AAUhMenu@@@Z 
01:0000779C ?_getMenuItemCount@gui_api@@SAXPBUhMenu@@AAUpositive@@@Z  (Idle)
01:00007814 ?_getMenuItemInfo_index@gui_api@@SAXPBUhMenu@@PBUpositive@@PAPAUmenuItemInfo_struct@gui_native@@@Z  (Idle)
01:00007830 ?_getMenuItemInfo_index@gui_api@@SAXPBUhMenu@@PBUpositive@@IPAPAUmenuItemInfo_struct@gui_native@@@Z 
01:00007864 ?_getMenuItemInfo_id@gui_api@@SAXPBUhMenu@@IPAPAUmenuItemInfo_struct@gui_native@@@Z  (Idle)
01:00007880 ?_getMenuItemInfo_id@gui_api@@SAXPBUhMenu@@IIPAPAUmenuItemInfo_struct@gui_native@@@Z 
01:000078A8 ?_getMenuItemInfo2@gui_api@@SAXPBUhMenu@gui_native@@IPBUbooleanInt@@IPAPAUmenuItemInfo_struct@3@@Z 
01:00007A1C ?_getMenuItemString_index@gui_api@@SAXPBUhMenu@@PBUpositive@@PAPB_W@Z  (Idle)
01:00007A48 ?_getMenuItemString_id@gui_api@@SAXPBUhMenu@@IPAPB_W@Z  (Idle)
01:00007A74 ?insertMenuItem_first@gui_api@@SAXPBUhMenu@gui_native@@PAUmenuItemInfo_struct@3@@Z  (Idle)
01:00007A90 ?insertMenuItem_last@gui_api@@SAXPBUhMenu@gui_native@@PAUmenuItemInfo_struct@3@@Z  (Idle)
01:00007AAC ?insertMenuItem_beforeIndex@gui_api@@SAXPBUhMenu@gui_native@@PBUpositiveOptional@@PAUmenuItemInfo_struct@3@@Z 
01:00007AD4 ?insertMenuItem_beforeId@gui_api@@SAXPBUhMenu@gui_native@@IPAUmenuItemInfo_struct@3@@Z  (Idle)
01:00007AF0 ?insertMenuItem2@gui_api@@SAXPBUhMenu@gui_native@@IPBUbooleanInt@@PAUmenuItemInfo_struct@3@@Z 
01:00007B4C ?endMenu@gui_api@@SAXXZ  (Idle)
01:00007B84 ?moveWindow@gui_api@@SAXPBUhwnd@@HHHHPAUboolean_struct@_builtIn@@@Z  (Idle)
01:00007BE0 ?_mkW@gui_api@@SAXHAAUwParam@@@Z  (Idle)
01:00007BF0 ?_mkL@gui_api@@SAXHAAUlParam@@@Z 
01:00007C00 ?_mkR@gui_api@@SAXHAAUlResult@@@Z  (Idle)
01:00007C10 ?_makeIntResource@gui_api@@SAXIPAPB_W@Z  (Idle)
01:00007C34 ?isCtrlColorMsg@gui_api@@SAXI@Z  (Idle)
01:00007C8C ?openClipboard@gui_api@@SAXPBUhwnd@@@Z  (Idle)
01:00007CC8 ?closeClipboard@gui_api@@SAXXZ  (Idle)
01:00007D00 ?_getClipboardOwner@gui_api@@SAXAAUhwnd@@@Z  (Idle)
01:00007D40 ?_setClipboardViewer@gui_api@@SAXPBUhwnd@@AAU2@@Z  (Idle)
01:00007D80 ?_getClipboardViewer@gui_api@@SAXAAUhwnd@@@Z  (Idle)
01:00007DC0 ?_changeClipboardChain@gui_api@@SAXPBUhwnd@@0PAPAUboolean_struct@_builtIn@@@Z  (Idle)
01:00007DE4 ?setClipboardData@gui_api@@SAXIPBUhandle@@@Z  (Idle)
01:00007E24 ?_getClipboardData@gui_api@@SAXIAAUhandle@@@Z  (Idle)
01:00007E64 ?_registerClipboardFormat@gui_api@@SAXPB_WPAI@Z  (Idle)
01:00007EA4 ?_countClipboardFormats@gui_api@@SAXPAH@Z  (Idle)
01:00007EE4 ?_enumClipboardFormats@gui_api@@SAXIPAI@Z  (Idle)
01:00007F24 ?_getClipboardFormatName@gui_api@@SAXIPAPB_W@Z  (Idle)
01:00007F80 ?emptyClipboard@gui_api@@SAXXZ  (Idle)
01:00007FB8 ?isClipboardFormatAvailable@gui_api@@SAXI@Z  (Idle)
01:00007FD4 ?_getPriorityClipboardFormat@gui_api@@SAXPAXHPAH@Z  (Idle)
01:00008018 ?_getOpenClipboardWindow@gui_api@@SAXAAUhwnd@@@Z  (Idle)
01:00008058 ?destroyWindow@gui_api@@SAXPBUhwnd@@@Z  (Idle)
01:00008094 ?_getText@gui_api@@SAXPBUhwnd@@PAPB_W@Z  (Idle)
01:00008120 ?setText@gui_api@@SAXPBUhwnd@@PB_W@Z  (Idle)
01:00008154 ?_getWindowRect@gui_api@@SAXPBUhwnd@@PAPAUrct_struct@vpiDomains@@@Z  (Idle)
01:000081B0 ?_loadImage_file@gui_api@@SAXPB_WIPBUpositive@@2IAAUhandle@@@Z  (Idle)
01:00008238 ?_loadImage_oem@gui_api@@SAXPBUresid@vpiDomains@@IPBUpositive@@2IAAUhandle@@@Z  (Idle)
01:0000829C ?_loadImage_resId@gui_api@@SAXPBUresid@vpiDomains@@IPBUpositive@@2IAAUhandle@@@Z  (Idle)
01:00008318 ?_loadImage_resId@gui_api@@SAXPBUhModule@@PBUresid@vpiDomains@@IPBUpositive@@3IAAUhandle@@@Z  (Idle)
01:00008378 ?_loadImage@gui_api@@SAXPBUhModule@@PB_WIPBUpositive@@3IPAUvalue_struct@core@@AAUhandle@@@Z 
01:00008414 ?_getWindowThreadProcessId@gui_api@@SAXPBUhwnd@@PAI@Z  (Idle)
01:00008434 ?_getWindowThreadProcessId@gui_api@@SAXPBUhwnd@@PAIPAI@Z 
01:00008478 ?attachThreadInput@gui_api@@SAXIIPAUboolean_struct@_builtIn@@@Z  (Idle)
01:000084CC ?_setActiveWindow@gui_api@@SAXPBUhwnd@@AAU2@@Z  (Idle)
01:0000850C ?rectangle@gui_api@@SAXPBUhDC@@HHHH@Z  (Idle)
01:00008554 ?drawFocusRect@gui_api@@SAXPBUhDC@@PAUrct_struct@vpiDomains@@@Z  (Idle)
01:00008594 ?trackMouseEvent@gui_api@@SAXPAUtrackMouseEvent_struct@gui_native@@@Z  (Idle)
01:000085D0 ?trackMouseHover@gui_api@@SAXPBUhwnd@@@Z  (Idle)
01:00008608 ?trackMouseLeave@gui_api@@SAXPBUhwnd@@@Z  (Idle)
01:00008640 ?setWindowPos@gui_api@@SAXPBUhwnd@@0HHHHI@Z  (Idle)
01:00008690 ?updateLayeredWindow@gui_api@@SAXPBUhwnd@@PBUhDC@@PAUpnt_struct@vpiDomains@@PAUsize_struct@gui_native@@12PBUcolor@5@PAUblendFunction_struct@7@I@Z  (Idle)
01:000086E4 ?_getStockObject@gui_api@@SAXHAAUhandle@@@Z  (Idle)
01:0000875C ?_monitorFromPoint@gui_api@@SAXPAUpnt_struct@vpiDomains@@IAAUhMonitor@@@Z  (Idle)
01:0000877C ?_monitorFromRect@gui_api@@SAXPAUrct_struct@vpiDomains@@IAAUhMonitor@@@Z  (Idle)
01:00008794 ?_monitorFromWindow@gui_api@@SAXPBUhwnd@@IAAUhMonitor@@@Z  (Idle)
01:000087AC ?_getMonitorInfo@gui_api@@SAXPBUhMonitor@@PAPAUmonitorInfo_struct@1@@Z  (Idle)
01:000088DC ?_getDummy@gui_api@@SAXPAH@Z 
01:000088F0 ?_mkKeyDown@gui_api@@SAXPBUunsigned16@@PAPAUinput_struct@gui_native@@@Z  (Idle)
01:00008920 ?_mkKeyUp@gui_api@@SAXPBUunsigned16@@PAPAUinput_struct@gui_native@@@Z  (Idle)
01:00008954 ?_mkKeyInputStructure@gui_api@@SAXPBUunsigned16@@0IIPBUlParam@gui_native@@PAPAUinput_struct@5@@Z 
01:000089F8 ?anonymous$c0$1$sendinput/1np$gui_api@1@SAXPAUanonymous$c0$1$sendinput/1np$gui_apic_struct@1@PAXPAUinput_struct@gui_native@@@Z 
01:00008A14 ?sendInput@gui_api@@SAXPAU?$__packedList_struct@Uinput@gui_native@@@@@Z  (Idle)
01:00008B64 ?_getMenuItemRect@gui_api@@SAXPBUhwnd@@PBUhmenu@gui_native@@PBUpositive@@PAPAUrct_struct@vpiDomains@@@Z  (Idle)
01:00008BC8 ?_setTimer@gui_api@@SAXPBUunsignedNative@@PBUpositive@@XAAU2@@Z  (Idle)
01:00008C00 ?setTimer@gui_api@@SAXPBUhwnd@@PBUunsignedNative@@PBUpositive@@X@Z  (Idle)
01:00008C24 ?_setTimer@gui_api@@SAXPBUhwnd@@PBUunsignedNative@@PBUpositive@@XAAU3@@Z 
01:00008C74 ?killTimer@gui_api@@SAXPBUhwnd@@PBUunsignedNative@@@Z  (Idle)
01:00008CB4 ?_getIconInfo@gui_api@@SAXPBUhIcon@@PAPAUiconInfo_struct@gui_native@@@Z  (Idle)
01:00008D60 ?destroyIcon@gui_api@@SAXPBUhIcon@@@Z  (Idle)
01:00008D9C ?_enableWindow@gui_api@@SAXPBUhwnd@@PAUboolean_struct@_builtIn@@PAPAU34@@Z  (Idle)
01:00008DD4 ?tryTranslateAccelerator@gui_api@@SAXPBUhwnd@@PBUhandle@@PAUmsg_struct@gui_native@@@Z  (Idle)
01:00008DF4 ?isDialogMessage@gui_api@@SAXPBUhwnd@@PAUmsg_struct@gui_native@@@Z  (Idle)
01:00008E14 ?_getForegroundWindow@gui_api@@SAXAAUhwnd@@@Z  (Idle)
01:00008E28 ?tryGetMessageUpdate@gui_api@@SAXPAUmsg_struct@gui_native@@PBUhwnd@@II@Z  (Idle)
01:00008E5C ?_tryGetMessage@gui_api@@SAXPBUhwnd@@IIPAPAUmsg_struct@gui_native@@@Z  (Idle)
01:00008E9C gui_api_getParam 
01:00008EAC ?getInteger16@gui_api@@SAXPBUintegerNative@@AAUinteger16@@1@Z  (Idle)
01:00008EE4 ?getInteger16@gui_api@@SAXPBUwParam@@AAUinteger16@@1@Z  (Idle)
01:00008F1C ?getInteger16@gui_api@@SAXPBUlParam@@AAUinteger16@@1@Z 
01:00008F54 ?getInteger16@gui_api@@SAXPBUlResult@@AAUinteger16@@1@Z  (Idle)
01:00008F8C ?getUnsigned16@gui_api@@SAXPBUintegerNative@@AAUunsigned16@@1@Z 
01:00008FC8 ?getUnsigned16@gui_api@@SAXPBUwParam@@AAUunsigned16@@1@Z 
01:00009004 ?getUnsigned16@gui_api@@SAXPBUlParam@@AAUunsigned16@@1@Z 
01:00009040 ?getUnsigned16@gui_api@@SAXPBUlResult@@AAUunsigned16@@1@Z 
01:0000907C ?_createWindowEx@gui_api@@SAXIPBUatom@gui_native@@PB_WIHHHHPBUhwnd@@PBUhMenu@@PBUhModule@@PAXAAU4@@Z  (Idle)
01:00009140 ?_createFontIndirect@gui_api@@SAXPBUfont@vpiDomains@@AAUhFont@@@Z  (Idle)
01:00009190 ?_mkW@gui_api@@SAXIAAUwParam@@@Z 
01:000091A0 ?_mkL@gui_api@@SAXIAAUlParam@@@Z 
01:000091B0 ?_mkR@gui_api@@SAXIAAUlResult@@@Z  (Idle)
--- From 'Obj\locale_api.813BCFA0.obj'
01:000091C0 ?_makeLangId@locale_api@@SAXIIPAI@Z  (Idle)
01:000091E4 ?_primaryLangId@locale_api@@SAXIPAI@Z  (Idle)
01:00009200 ?_subLangId@locale_api@@SAXIPAI@Z  (Idle)
01:0000921C ?_makeLcId@locale_api@@SAXIIAAUlcId@@@Z  (Idle)
01:00009240 ?_makeSortLcId@locale_api@@SAXIIIPAI@Z  (Idle)
01:00009288 ?_langIdFromLcId@locale_api@@SAXIPAI@Z  (Idle)
01:000092A4 ?_sortIdFromLcId@locale_api@@SAXIPAI@Z  (Idle)
01:000092CC ?_sortVersionFromLcId@locale_api@@SAXIPAI@Z  (Idle)
01:000092E8 ?_getNumberFormat@locale_api@@SAXPB_WPAPB_W@Z  (Idle)
01:0000930C ?_getNumberFormat@locale_api@@SAXPB_WPBUlcId@@PAPB_W@Z 
01:00009328 ?_getNumberFormat@locale_api@@SAXPB_WPBUlcId@@PAUnumberfmt_struct@locale_native@@PAPB_W@Z 
01:00009380 ?_getLocaleInfo_integer@locale_api@@SAXPBUlcType@@PAH@Z  (Idle)
01:000093A4 ?_getLocaleInfo_integer@locale_api@@SAXPBUlcType@@PBUlcId@@PAH@Z 
01:000093D0 ?_getLocaleInfo_string@locale_api@@SAXPBUlcType@@PAPB_W@Z  (Idle)
01:000093F4 ?_getLocaleInfo_string@locale_api@@SAXPBUlcType@@PBUlcId@@PAPB_W@Z 
--- From 'Obj\memory_api.61C8F3DA.obj'
01:00009450 ?globalMemoryStatusEx@memory_api@@SAXPAIPAPA_K111111@Z  (Idle)
01:000095E4 ?_alloc_memoryStatusEx@memory_api@@SAXIPAPAUmemoryStatusEx_struct@memory_native@@@Z 
01:00009658 ?_globalAlloc@memory_api@@SAXIPBUbyteCount@@AAUhGlobal@windowsAPI@@@Z  (Idle)
01:000096A0 ?globalFree@memory_api@@SAXPBUhGlobal@windowsAPI@@@Z  (Idle)
01:000096DC ?_globalLock@memory_api@@SAXPBUhGlobal@windowsAPI@@PAPAX@Z  (Idle)
01:0000971C ?globalUnlock@memory_api@@SAXPBUhGlobal@windowsAPI@@@Z  (Idle)
01:00009738 ?_globalUnlock@memory_api@@SAXPBUhGlobal@windowsAPI@@PAPAUboolean_struct@_builtIn@@@Z 
01:00009784 ?_globalSize@memory_api@@SAXPBUhGlobal@windowsAPI@@AAUbyteCount@@@Z  (Idle)
01:000097DC ?_mkGlobal_string@memory_api@@SAXPB_WAAUhGlobal@windowsAPI@@@Z  (Idle)
01:00009834 ?_getGlobal_string@memory_api@@SAXPBUhGlobal@windowsAPI@@PAPB_W@Z  (Idle)
01:00009928 ?_mkGlobal_string8@memory_api@@SAXPADAAUhGlobal@windowsAPI@@@Z  (Idle)
01:00009970 ?_anonymous$c0$1$getglobal_string8/1nf$memory_api@1@SAXPAXPBUbyteCount@@PAPAD@Z 
01:00009984 ?_getGlobal_string8@memory_api@@SAXPBUhGlobal@windowsAPI@@PAPAD@Z  (Idle)
01:000099BC ?_mkGlobal_binary@memory_api@@SAXQAEAAUhGlobal@windowsAPI@@@Z  (Idle)
01:000099F8 ?_getGlobal_binary@memory_api@@SAXPBUhGlobal@windowsAPI@@QAPAE@Z  (Idle)
01:00009A30 ?_mkGlobal_pointer@memory_api@@SAXPAXPBUbyteCount@@AAUhGlobal@windowsAPI@@@Z 
01:00009AD0 ?_getGlobal_pointer@memory_api@@SAXQAVrTypeLibrary@TypeLibraries@RunTime@VIP@@PBUhGlobal@windowsAPI@@XPAPAX@Z 
--- From 'Obj\shell_api.FFCE11BE.obj'
01:00009B78 ?localFree@memory_api@@SAXQAVrTypeLibrary@TypeLibraries@RunTime@VIP@@PAX@Z 
--- From 'Obj\multithread_api.6656783C.obj'
01:00009BC0 _Wow64GetThreadSelectorEntry@12 
01:00009BE4 _GetThreadId@4  (Idle)
01:00009C08 ?_createEvent@multiThread_api@@SAXPB_WPAUboolean_struct@_builtIn@@1AAUsyncHandle@windowsAPI@@@Z  (Idle)
01:00009D1C ?_openEvent@multiThread_api@@SAXPB_WAAUsyncHandle@windowsAPI@@@Z  (Idle)
01:00009D60 ?setEvent@multiThread_api@@SAXPBUsyncHandle@windowsAPI@@@Z  (Idle)
01:00009DF4 ?error@multiThread_api@@SAXPBUsyncHandle@windowsAPI@@PB_W@Z  (Idle)
01:00009E70 ?resetEvent@multiThread_api@@SAXPBUsyncHandle@windowsAPI@@@Z  (Idle)
01:00009E98 ?pulseEvent@multiThread_api@@SAXPBUsyncHandle@windowsAPI@@@Z  (Idle)
01:00009F2C ?_createMutex@multiThread_api@@SAXPB_WPAUboolean_struct@_builtIn@@AAUsyncHandle@windowsAPI@@@Z  (Idle)
01:00009FD8 ?_openMutex@multiThread_api@@SAXPB_WAAUsyncHandle@windowsAPI@@@Z  (Idle)
01:0000A01C ?releaseMutex@multiThread_api@@SAXPBUsyncHandle@windowsAPI@@@Z  (Idle)
01:0000A044 ?_createSemaphore@multiThread_api@@SAXPB_WIIAAUsyncHandle@windowsAPI@@@Z  (Idle)
01:0000A150 ?_openSemaphore@multiThread_api@@SAXPB_WAAUsyncHandle@windowsAPI@@@Z  (Idle)
01:0000A194 ?_releaseSemaphore@multiThread_api@@SAXPBUsyncHandle@windowsAPI@@IPAI@Z  (Idle)
01:0000A280 ?_createWaitableTimer@multiThread_api@@SAXPB_WPAUboolean_struct@_builtIn@@AAUsyncHandle@windowsAPI@@@Z  (Idle)
01:0000A340 ?_openWaitableTimer@multiThread_api@@SAXPB_WAAUsyncHandle@windowsAPI@@@Z  (Idle)
01:0000A384 ?setWaitableTimer@multiThread_api@@SAXPBUsyncHandle@windowsAPI@@PAPBUtimeIntervalValue@@HPAUboolean_struct@_builtIn@@@Z  (Idle)
01:0000A3A4 ?setWaitableTimer@multiThread_api@@SAXPBUsyncHandle@windowsAPI@@PAPBUtimeIntervalValue@@HXPAXPAUboolean_struct@_builtIn@@@Z 
01:0000A550 ?cancelWaitableTimer@multiThread_api@@SAXPBUsyncHandle@windowsAPI@@@Z  (Idle)
--- From 'Obj\registry.9E3F9277.obj'
01:0000A578 ?isWow64Process@multiThread_api@@SAXPBUprocessHandle@windowsAPI@@@Z 
--- From 'Obj\multithread_api.6656783C.obj'
01:0000A62C ?dummyWow64Func@multiThread_api@@SGPBUbooleanInt@@PBUhandle@@AAU2@@Z 
01:0000A648 ?_handlingNullString@multiThread_api@@SAXPB_WPAPB_W@Z  (Idle)
01:0000A68C ?checkHandle@multiThread_api@@SAXPBUsyncHandle@windowsAPI@@PB_W1PAU?$__packedList_struct@UnamedValue@@@@@Z 
01:0000A724 ?checkAlreadyExist@multiThread_api@@SAXPBUhandle@@PB_W@Z 
01:0000A7EC ?getThreadContext@multiThread_api@@SAXPBUthreadHandle@multiThread_native@@PAX@Z  (Idle)
01:0000A880 ?setThreadContext@multiThread_api@@SAXPBUthreadHandle@multiThread_native@@PAX@Z  (Idle)
01:0000A914 ?_getThreadSelectorEntry@multiThread_api@@SAXPBUthreadHandle@multiThread_native@@IPAPAUselectorEntry_struct@3@@Z  (Idle)
01:0000AA18 ?_wow64GetThreadSelectorEntry@multiThread_api@@SAXPBUthreadHandle@multiThread_native@@IPAPAUselectorEntry_struct@3@@Z  (Idle)
01:0000AB1C ?_mkInheritable@multiThread_api@@SAXPBUhandle@@AAU2@@Z  (Idle)
01:0000AB38 ?_mkInheritable@multiThread_api@@SAXPBUhandle@@PAUboolean_struct@_builtIn@@AAU2@@Z 
01:0000AB74 ?setProcessAffinityMask@multiThread_api@@SAXPBUunsignedNative@@@Z  (Idle)
01:0000AB8C ?setProcessAffinityMask@multiThread_api@@SAXPBUunsignedNative@@PBUprocessHandle@windowsAPI@@@Z 
--- From 'Obj\registry_api.32A69E85.obj'
01:0000ABD0 _RegDeleteKeyExW@16 
--- From 'Obj\registry.9E3F9277.obj'
01:0000ABF4 ?_regOpenKeyEx@registry_api@@SAXPBUhKey@@PB_WPBUregsAM@@AAU2@@Z 
01:0000AC3C ?_regTryOpenKeyEx@registry_api@@SAXPBUhKey@@PB_WPBUregsAM@@AAU2@@Z 
01:0000AC64 ?regCloseKey@registry_api@@SAXPBUhKey@@@Z 
01:0000ACF0 ?_regCreateKeyEx@registry_api@@SAXPBUhKey@@PB_WIPBUregsAM@@PAUsecurityAttr_struct@registry_native@@PAIAAU2@@Z 
01:0000AD38 ?regDeleteKey@registry_api@@SAXPBUhKey@@PB_W@Z 
01:0000AD78 ?regDeleteKeyEx@registry_api@@SAXPBUhKey@@PB_WPBUregsAM@@@Z 
01:0000ADBC ?_regEnumKeyEx@registry_api@@SAXPBUhKey@@PAPAU?$__packedList_struct@Ustring@@@@@Z 
--- From 'Obj\registry_api.32A69E85.obj'
01:0000AE54 ?_regEnumKeyEx1@registry_api@@SAXPBUhKey@@IPB_WPBUcharCount@@PAPAU?$__packedList_struct@Ustring@@@@@Z 
01:0000AECC ?_tryRegEnumKeyExOne@registry_api@@SAXPBUhKey@@IPB_WPBUcharCount@@PAPB_W@Z 
--- From 'Obj\registry.9E3F9277.obj'
01:0000B00C ?regSetValueEx@registry_api@@SAXPBUhKey@@PB_WPAUvalue_struct@core@@@Z 
01:0000B07C ?_regQueryValueEx@registry_api@@SAXPBUhKey@@PB_WPAPAUvalue_struct@core@@@Z 
01:0000B0E0 ?_regTryQueryValueEx@registry_api@@SAXPBUhKey@@PB_WPAPAUvalue_struct@core@@@Z 
--- From 'Obj\registry_api.32A69E85.obj'
01:0000B134 ?_regQueryValueEx1@registry_api@@SAXPBUhKey@@PB_WPAUpByteCount_struct@memory@@PAPAUvalue_struct@core@@@Z 
01:0000B1BC ?regDeleteValue@registry_api@@SAXPBUhKey@@PB_W@Z  (Idle)
--- From 'Obj\registry.9E3F9277.obj'
01:0000B1F0 ?regDeleteValueIfExist@registry_api@@SAXPBUhKey@@PB_W@Z 
01:0000B234 ?_regEnumValue@registry_api@@SAXPBUhKey@@PAPAU?$__packedList_struct@UnamedValue@@@@@Z 
--- From 'Obj\registry_api.32A69E85.obj'
01:0000B274 ?_regEnumValue1@registry_api@@SAXPBUhKey@@IPB_WPBUcharCount@@PAPAU?$__packedList_struct@UnamedValue@@@@@Z 
01:0000B2EC ?_tryRegEnumValueOne@registry_api@@SAXPBUhKey@@IPB_WPBUcharCount@@PAPAUnamedValue_struct@core@@@Z 
01:0000B664 ?_packValue@registry_api@@SAXIPAXPBUbyteCount@@PAPAUvalue_struct@core@@@Z 
01:0000B930 ?unpackValue@registry_api@@SAXPAUvalue_struct@core@@PAIPAPAXAAUbyteCount@@@Z 
01:0000BCF8 ?_convertToStringList@registry_api@@SAXPAXPBUbyteCount@@PAPAU?$__packedList_struct@Ustring@@@@@Z 
01:0000BDB8 ?check_name_value@registry_api@@SAXPBUhResult@@PB_W1PAUvalue_struct@core@@@Z 
01:0000BE6C ?check_name@registry_api@@SAXPBUhResult@@PB_W1@Z 
--- From 'Obj\runtime_api.77D75C02.obj'
01:0000BEF0 ?_determineOSV5@runtime_api@@SAXIIPBUunsigned16@@PAPB_W@Z  (Idle)
01:0000C198 ?_determineOSV4@runtime_api@@SAXIIPBUunsigned16@@PAPB_W@Z  (Idle)
01:0000C230 ?_determineOSV6@runtime_api@@SAXIIPBUunsigned16@@PAPB_W@Z  (Idle)
01:0000C488 ?_determineMajorVersion@runtime_api@@SAXIIIPBUunsigned16@@PAPB_W@Z  (Idle)
01:0000C554 ?_determineOSFamily@runtime_api@@SAXIPAPB_W@Z  (Idle)
--- From 'Obj\exception.B3237F89.obj'
01:0000C714 ?getOSVersion@runtime_api@@SAXQAVoutputStream@@@@Z 
--- From 'Obj\runtime_api.77D75C02.obj'
01:0000C830 ?_getSysInfoStr@runtime_api@@SAXPAPB_W@Z 
01:0000C8C0 ?_getNativeSysInfo@runtime_api@@SAXPAPB_W@Z 
01:0000C950 ?_getRegInfo@runtime_api@@SAXPAPB_W@Z 
01:0000C9F4 ?_getRegInfoK@runtime_api@@SAXPB_WPAPB_W@Z 
01:0000CA60 ?_printString@runtime_api@@SAXPAUvalue_struct@core@@PAPB_W@Z 
--- From 'Obj\shell_api.FFCE11BE.obj'
01:0000CAE0 ?shellOpen@shell_api@@SAXPB_W@Z  (Idle)
01:0000CB04 ?shellRun@shell_api@@SAXPB_W@Z  (Idle)
01:0000CB28 ?shellExecute@shell_api@@SAXPBUhwnd@@PB_W1@Z 
01:0000CB40 ?shellExecute@shell_api@@SAXPBUhwnd@@PB_W11@Z 
01:0000CB58 ?shellExecute@shell_api@@SAXPBUhwnd@@PB_W111@Z 
01:0000CB6C ?shellExecute@shell_api@@SAXPBUhwnd@@PB_W111H@Z 
01:0000CBE4 ?shellExecuteEx@shell_api@@SAXPAUshellExecuteInfo_struct@shell_native@@@Z  (Idle)
01:0000CC20 ?_shellExecuteErrorDescription@shell_api@@SAXIPAPB_W@Z 
01:0000CD60 ?_sHCreateStreamOnFileEx@shell_api@@SAXPB_WIPAPAViStream_native@@@@Z  (Idle)
01:0000CD80 ?_sHCreateStreamOnFileEx@shell_api@@SAXPB_WIIPAUboolean_struct@_builtIn@@PAPAViStream_native@@@@Z 
01:0000CDD4 ?_commandLineToArgv@shell_api@@SAXPB_WPAPAU?$__packedList_struct@Ustring@@@@@Z  (Idle)
--- From 'Obj\string8.ACF7B790.obj'
01:0000CEB0 ?toWideChar@string8_api@@SAXPBUcodePage@@PADPBUbyteCountOptional@@PB_WPBUcharCount@@@Z 
01:0000CF04 ?_lenWideChar@string8_api@@SAXPBUcodePage@@PADPBUbyteCountOptional@@AAUcharCount@@@Z 
01:0000CF74 ?toMultiByte@string8_api@@SAXPBUcodePage@@PB_WPBUcharCountOptional@@PADPBUbyteCount@@@Z 
01:0000CFCC ?_lenMultiByte@string8_api@@SAXPBUcodePage@@PB_WPBUcharCountOptional@@AAUbyteCount@@@Z 
01:0000D040 ?_charNextExA@string8_api@@SAXPBUcodePage@@PADPAPAD@Z 
--- From 'Obj\systeminformation_api.344506F5.obj'
01:0000D060 ?getVersionEx@systemInformation_api@@SAXPAIPAIPAIPAIPAPB_WAAUunsigned16@@55AAUunsigned8@@@Z 
01:0000D1A0 ?_allocWithSize@systemInformation_api@@SAXPBUbyteCount@@PAPAX@Z 
01:0000D1D4 ?systemInfo@systemInformation_api@@SGPAUsystem_Info_struct@systemInformation_native@@XZ 
01:0000D208 ?nativeSystemInfo@systemInformation_api@@SGPAUsystem_Info_struct@systemInformation_native@@XZ 
01:0000D23C ?isWindows64@systemInformation_api@@SAXXZ  (Idle)
01:0000D260 ?_getUserName@systemInformation_api@@SAXPAPB_W@Z  (Idle)
01:0000D2EC ?_getUserNameEx@systemInformation_api@@SAXPBUuserNameFormat@systemInformation_native@@PAPB_W@Z  (Idle)
01:0000D370 ?_getComputerName@systemInformation_api@@SAXPAPB_W@Z  (Idle)
01:0000D3FC ?_getComputerNameEx@systemInformation_api@@SAXPBUcomputerNameFormat@systemInformation_native@@PAPB_W@Z  (Idle)
01:0000D480 ?systemParametersInfo@systemInformation_api@@SAXIIPAXI@Z  (Idle)
01:0000D4C4 ?systemParametersInfo_outInt@systemInformation_api@@SAXIIPAHI@Z  (Idle)
01:0000D508 ?_getNonclientMetrics@systemInformation_api@@SAXPAPAUnonclientMetrics_struct@systemInformation_native@@@Z  (Idle)
01:0000D558 ?_getNonclientMetricsXP@systemInformation_api@@SAXPAPAUnonclientMetricsXP_struct@systemInformation_native@@@Z  (Idle)
--- From 'Obj\filesystem.AD950C87.obj'
01:0000D5A8 ?majorOSversion@systemInformation_api@@SGIXZ 
--- From 'Obj\time_api.1A6CCE63.obj'
01:0000D610 _GetTickCount64@0  (Idle)
01:0000D634 _QueryUnbiasedInterruptTime@4  (Idle)
--- From 'Obj\exceptiondump.364682AD.obj'
01:0000D658 ?_getSystemTimeAsFileTime@time_api@@SAXPAAAUgmtTimeValue@@@Z 
--- From 'Obj\time_api.1A6CCE63.obj'
01:0000D698 ?_gmtTimeToSystemTime@time_api@@SAXPAPBUgmtTimeValue@@PAPAUsystemTime_struct@time_native@@@Z  (Idle)
01:0000D758 ?_systemTimeToGmtTime@time_api@@SAXPAUsystemTime_struct@time_native@@PAAAUgmtTimeValue@@@Z  (Idle)
--- From 'Obj\exception.B3237F89.obj'
01:0000DAB0 ?_localTimeToSystemTime@time_api@@SAXPAPBUlocalTimeValue@@PAPAUsystemTime_struct@time_native@@@Z 
--- From 'Obj\time_api.1A6CCE63.obj'
01:0000DAC4 ?_systemTimeToLocalTime@time_api@@SAXPAUsystemTime_struct@time_native@@PAAAUlocalTimeValue@@@Z  (Idle)
01:0000DAE8 ?_getTimeZoneInformation@time_api@@SAXPAPAUtimeZoneAPI_struct@time_native@@@Z  (Idle)
01:0000DB48 ?_systemTimeToTzSpecificLocalTime@time_api@@SAXPAUtimeZoneAPI_struct@time_native@@PAUsystemTime_struct@3@PAPAU43@@Z  (Idle)
01:0000DBA8 ?_tzSpecificLocalTimeToSystemTime@time_api@@SAXPAUtimeZoneAPI_struct@time_native@@PAUsystemTime_struct@3@PAPAU43@@Z  (Idle)
--- From 'Obj\exception.B3237F89.obj'
01:0000DCD4 ?_gmtTimeToLocalTime@time_api@@SAXPAPBUgmtTimeValue@@PAAAUlocalTimeValue@@@Z 
--- From 'Obj\time_api.1A6CCE63.obj'
01:0000DCF0 ?_gmtTimeToLocalTime@time_api@@SAXPAPBUgmtTimeValue@@PAUtimeZoneAPI_struct@time_native@@PAAAUlocalTimeValue@@@Z 
01:0000DE14 ?_localTimeToGmtTime@time_api@@SAXPAPBUlocalTimeValue@@PAAAUgmtTimeValue@@@Z  (Idle)
01:0000DE30 ?_localTimeToGmtTime@time_api@@SAXPAPBUlocalTimeValue@@PAUtimeZoneAPI_struct@time_native@@PAAAUgmtTimeValue@@@Z 
01:0000DF54 ?_gmtTimeToFileTime@time_api@@SAXPAPBUgmtTimeValue@@PAPAUfileTime_struct@time_native@@@Z 
--- From 'Obj\filesystem.AD950C87.obj'
01:0000DF78 ?_fileTimeToGmtTime@time_api@@SAXPAUfileTime_struct@time_native@@PAAAUgmtTimeValue@@@Z 
--- From 'Obj\time_api.1A6CCE63.obj'
01:0000DF84 ?_formatDate@time_api@@SAXPAPBUlocalTimeValue@@PB_WPBUlcId@@PAPB_W@Z  (Idle)
01:0000DFD0 ?_formatTime@time_api@@SAXPAPBUlocalTimeValue@@PB_WPBUlcId@@PAPB_W@Z  (Idle)
--- From 'Obj\exception.B3237F89.obj'
01:0000E01C ?_getDateFormat@time_api@@SAXPBUlcId@@IPAUsystemTime_struct@time_native@@PB_WPAPB_W@Z 
01:0000E118 ?_getTimeFormat@time_api@@SAXPBUlcId@@IPAUsystemTime_struct@time_native@@PB_WPAPB_W@Z 
--- From 'Obj\time_api.1A6CCE63.obj'
01:0000E214 ?_getLocaleInfo_string@time_api@@SAXPBUlcId@@PBUlcType@@PAPB_W@Z  (Idle)
01:0000E298 ?_getLocaleInfo_integer@time_api@@SAXPBUlcId@@PBUlcType@@PAH@Z  (Idle)
01:0000E2E8 ?_getFirstDayOfWeek@time_api@@SAXPBUlcId@@PAH@Z  (Idle)
01:0000E304 ?_fromUnixTime@time_api@@SAXIPAAAUgmtTimeValue@@@Z  (Idle)
01:0000E36C ?_toUnixTime@time_api@@SAXPAPBUgmtTimeValue@@PAI@Z  (Idle)
01:0000E3F0 ?raise_cannotGetDateTimeFormat_explicit@time_api@@SAXPAUprogramPoint_struct@core@@IIIIIIIIIIPB_WPBUhResult@@@Z 
01:0000E800 ?raise_cannotGetLocaleInfo_explicit@time_api@@SAXPAUprogramPoint_struct@core@@IIPBUhResult@@@Z 
01:0000E91C ?_fromUnixTime@time_api@@SAXIPAAAUlocalTimeValue@@@Z  (Idle)
01:0000E984 ?_toUnixTime@time_api@@SAXPAPBUlocalTimeValue@@PAI@Z  (Idle)
--- From 'Obj\windowsapi.93A73582.obj'
01:0000EA10 ?_toMsStringSeq@windowsAPI@@SAXPAU?$__packedList_struct@Ustring@@@@AAUmsStringSeq@@@Z  (Idle)
01:0000EA58 ?_totalLength@windowsAPI@@SAXPAU?$__packedList_struct@Ustring@@@@PBUcharCount@core@@AAU34@@Z 
01:0000EAC4 ?fill@windowsAPI@@SAXPAU?$__packedList_struct@Ustring@@@@PBUmsStringSeq@@@Z 
01:0000EB6C ?_fromMsStringSeq@windowsAPI@@SAXPBUmsStringSeq@@PAPAU?$__packedList_struct@Ustring@@@@@Z  (Idle)
01:0000EBE4 ?_getString_nd@windowsAPI@@SAXPBUmsStringSeq@@PAPB_W@Z 
--- From '..\..\..\_intermediate\sourceVS\vipInit\Win32\ReleasePE\VIPDll.obj'
01:0000ECC0 _PROLOG_Goal 
--- From 'Obj\main.A22FE9BF.obj'
01:0000ECD8 ?mother@family@@SAXPBUname@@AAU2@@Z  (Idle)
01:0000ED7C ?father@family@@SAXPBUname@@AAU2@@Z  (Idle)
01:0000EE20 ?sibling@family@@SAXPBUname@@AAU2@@Z  (Idle)
01:0000EECC ?brother@family@@SAXPBUname@@AAU2@@Z  (Idle)
01:0000EF50 ?sister@family@@SAXPBUname@@AAU2@@Z  (Idle)
01:0000EFD4 ?sisters@family@@SAXPBUname@@AAU2@@Z  (Idle)
01:0000F09C ?child@family@@SAXPBUname@@AAU2@@Z  (Idle)
01:0000F0FC ?dauther@family@@SAXPBUname@@AAU2@@Z  (Idle)
01:0000F15C ?son@family@@SAXPBUname@@AAU2@@Z  (Idle)
01:0000F1C0 ?uncle@family@@SAXPBUname@@AAU2@@Z  (Idle)
01:0000F234 ?aunt@family@@SAXPBUname@@AAU2@@Z  (Idle)
01:0000F2A8 ?cousinM@family@@SAXPBUname@@AAU2@@Z  (Idle)
01:0000F384 ?cousinW@family@@SAXPBUname@@AAU2@@Z  (Idle)
01:0000F460 ?nephew@family@@SAXPBUname@@AAU2@@Z  (Idle)
01:0000F4E4 ?niece@family@@SAXPBUname@@AAU2@@Z  (Idle)
01:0000F568 ?grandparent@family@@SAXPBUname@@AAU2@@Z  (Idle)
01:0000F610 ?granddauther@family@@SAXPBUname@@AAU2@@Z  (Idle)
01:0000F674 ?run@family@@SAXXZ  (Idle)
01:0000FACC ?mother@family@@SAXAAUname@@PBU2@@Z  (Idle)
01:0000FB70 ?mother@family@@SAXAAUname@@0@Z 
01:0000FC08 ?mother@family@@SAXPBUname@@0@Z  (Idle)
01:0000FCB4 ?father@family@@SAXAAUname@@PBU2@@Z  (Idle)
01:0000FD58 ?father@family@@SAXAAUname@@0@Z  (Idle)
01:0000FDF0 ?father@family@@SAXPBUname@@0@Z  (Idle)
01:0000FE9C ?sibling@family@@SAXAAUname@@PBU2@@Z  (Idle)
01:0000FF44 ?sibling@family@@SAXAAUname@@0@Z  (Idle)
01:0000FFE4 ?sibling@family@@SAXPBUname@@0@Z 
01:00010098 ?brother@family@@SAXAAUname@@PBU2@@Z  (Idle)
01:0001011C ?brother@family@@SAXAAUname@@0@Z  (Idle)
01:000101A4 ?brother@family@@SAXPBUname@@0@Z 
01:00010224 ?sister@family@@SAXAAUname@@PBU2@@Z  (Idle)
01:000102A8 ?sister@family@@SAXAAUname@@0@Z  (Idle)
01:00010330 ?sister@family@@SAXPBUname@@0@Z 
01:000103B0 ?sisters@family@@SAXAAUname@@PBU2@@Z  (Idle)
01:00010474 ?sisters@family@@SAXAAUname@@0@Z 
01:00010534 ?sisters@family@@SAXPBUname@@0@Z  (Idle)
01:000105FC ?child@family@@SAXAAUname@@PBU2@@Z  (Idle)
01:0001065C ?child@family@@SAXAAUname@@0@Z  (Idle)
01:000106B0 ?child@family@@SAXPBUname@@0@Z  (Idle)
01:00010718 ?dauther@family@@SAXAAUname@@PBU2@@Z  (Idle)
01:00010780 ?dauther@family@@SAXAAUname@@0@Z  (Idle)
01:000107E8 ?dauther@family@@SAXPBUname@@0@Z  (Idle)
01:0001084C ?son@family@@SAXAAUname@@PBU2@@Z  (Idle)
01:000108B4 ?son@family@@SAXAAUname@@0@Z  (Idle)
01:0001091C ?son@family@@SAXPBUname@@0@Z  (Idle)
01:00010980 ?uncle@family@@SAXAAUname@@PBU2@@Z 
01:00010A00 ?uncle@family@@SAXAAUname@@0@Z 
01:00010A74 ?uncle@family@@SAXPBUname@@0@Z  (Idle)
01:00010AF4 ?aunt@family@@SAXAAUname@@PBU2@@Z 
01:00010B74 ?aunt@family@@SAXAAUname@@0@Z 
01:00010BE8 ?aunt@family@@SAXPBUname@@0@Z  (Idle)
01:00010C68 ?cousinM@family@@SAXAAUname@@PBU2@@Z  (Idle)
01:00010D40 ?cousinM@family@@SAXAAUname@@0@Z  (Idle)
01:00010E18 ?cousinM@family@@SAXPBUname@@0@Z  (Idle)
01:00010EF4 ?cousinW@family@@SAXAAUname@@PBU2@@Z  (Idle)
01:00010FCC ?cousinW@family@@SAXAAUname@@0@Z  (Idle)
01:000110A4 ?cousinW@family@@SAXPBUname@@0@Z  (Idle)
01:00011180 ?nephew@family@@SAXAAUname@@PBU2@@Z 
01:00011204 ?nephew@family@@SAXAAUname@@0@Z  (Idle)
01:00011288 ?nephew@family@@SAXPBUname@@0@Z  (Idle)
01:00011308 ?niece@family@@SAXAAUname@@PBU2@@Z  (Idle)
01:0001138C ?niece@family@@SAXAAUname@@0@Z  (Idle)
01:00011410 ?niece@family@@SAXPBUname@@0@Z  (Idle)
01:00011490 ?grandparent@family@@SAXAAUname@@PBU2@@Z 
01:0001153C ?grandparent@family@@SAXAAUname@@0@Z  (Idle)
01:000115DC ?grandparent@family@@SAXPBUname@@0@Z  (Idle)
01:00011690 ?granddauther@family@@SAXAAUname@@PBU2@@Z  (Idle)
01:000116F8 ?granddauther@family@@SAXAAUname@@0@Z  (Idle)
01:00011760 ?granddauther@family@@SAXPBUname@@0@Z 
01:000117C4 ?run@dog1@@SAXXZ 
01:00011DCC ?vnuk@dog1@@SAXPAPB_W0@Z 
01:00011EB0 ?run@dog@@SAXXZ  (Idle)
01:00011F14 ?dog@0@SAXAAUname@@@Z 
01:00011F74 ?parent@dog@@SAXAAUname@@0@Z 
01:00011F94 ?dog@0@SAXPBUname@@@Z 
01:0001203C ?parent@dog@@SAXPBUname@@AAU2@@Z 
--- From 'Obj\exe.CB067240.obj'
01:00012070 ?run@mainExe@@SAXX@Z  (Idle)
--- From 'Obj\console.93C0DBD8.obj'
01:00012084 ?run@mainExe@@SAXXPAUrunMode_struct@exe_api@@@Z 
--- From 'Obj\exe.CB067240.obj'
01:0001216C ?_getCommandLine@mainExe@@SAXPAPB_W@Z  (Idle)
01:000121DC ?_parseCommandLine@mainExe@@SAXPB_W_W0PAPB_W@Z 
01:000122A0 ?_getPosition@mainExe@@SAXPB_W_WAAUcharCount@@@Z 
01:000122E4 ?getFileName@mainExe@@SAXPAPB_W0@Z  (Idle)
01:00012320 ?_getFileName@mainExe@@SAXPAPB_W@Z 
01:0001233C ?_getCurrentHinstance@mainExe@@SAXAAUhModule@@@Z 
01:00012350 ?runCom@mainExe@@SAXX@Z  (Idle)
01:00012358 ?runOle@mainExe@@SAXX@Z  (Idle)
01:00012360 ?exceptionDumper@mainExe@@SGXX@Z  (Idle)
01:0001236C ?exceptionDumper@mainExe@@SGXXZ  (Idle)
--- From 'Obj\binary.A4D00680.obj'
01:00012380 ?new@outputStream_binary@@SAXQAV1@@@Z  (Idle)
01:00012420 ?size@outputStream_binary@@SGPBUbyteCount@@QAV1@@@Z 
01:000124C0 ?setMode@outputStream_binary@@SGXQAVstream@@@PAUmode_struct@2@@Z 
01:00012508 ?flush@outputStream_binary@@SAXQAVoutputStream@@@@Z 
01:00012510 ?close@outputStream_binary@@SGXQAVstream@@@@Z 
01:00012558 ?bufferFullCallBack@outputStream_binary@@SAXQAV1@@PAPAXAAUbyteCount@@@Z  (Idle)
01:000125D4 ?get_buffer_from_db@outputStream_binary@@SAXQAV1@@IPAPAXAAUbyteCount@@@Z 
01:0001263C ?_getBinary@outputStream_binary@@SAXQAV1@@QAPAE@Z 
01:000126F4 ?_getMemory@outputStream_binary@@SAXQAV1@@PAPAX@Z 
01:000127AC ?writeBuffersToBinary@outputStream_binary@@SAXQAV1@@PAX@Z 
01:00012828 ?writeSingleBufferToBinary@outputStream_binary@@SAXPAXPBUbyteCount@@PAX1@Z 
01:0001285C ?getPosition@outputStream_binary@@SGPBUfileSize@fileSystem_api@@QAVstream@@@@Z 
01:00012928 ?setPosition@outputStream_binary@@SGXQAVstream@@@PBUfileSize@fileSystem_api@@@Z 
01:00012994 ?handleSetOffset@outputStream_binary@@SAXQAV1@@PBUbyteCount@@@Z 
01:00012A1C ?updateCurrentBuffer@outputStream_binary@@SAXQAV1@@@Z 
01:00012B88 ?findBufferForOffset@outputStream_binary@@SAXQAV1@@PBUbyteCount@@PAIPAPAXAAU3@4@Z 
01:00012C14 ?handleBiggerOffset@outputStream_binary@@SAXQAV1@@PBUbyteCount@@@Z 
01:00012D98 ?_newBuffer@outputStream_binary@@SAXQAV1@@PBUbyteCount@@PAPAX@Z 
01:00012E2C ?_getSizeBefore@outputStream_binary@@SAXQAV1@@IAAUbyteCount@@@Z 
01:00012EB0 ?bufferNotFound_exception@outputStream_binary@@SAXI@Z 
01:00012EF0 ?checkUsePrevBuff@outputStream_binary@@SAXQAV1@@@Z  (Idle)
01:00012F4C ?getBuffer@outputStream_binary@@SGXQAVbufferSupport@@@PAPAXAAUbyteCount@@@Z 
01:00012FD4 ?getBufferLocked@outputStream_binary@@SGXQAVbufferSupport@@@PAPAXAAUbyteCount@@@Z 
01:00012FF0 ?_new@outputStream_binary@@SAXPAPAV1@@@Z 
01:00013018 ?_object_facts_initializer@outputStream_binary@@SGXQAV1@@@Z 
01:00013038 ?new@inputStream_binary@@SAXQAV1@@QAE@Z  (Idle)
01:0001306C ?new_pointer@inputStream_binary@@SAXQAV1@@PAXPBUbyteCount@core@@@Z 
01:000130A4 ?setMode@inputStream_binary@@SGXQAVstream@@@PAUmode_struct@2@@Z 
01:000130EC ?close@inputStream_binary@@SGXQAVstream@@@@Z 
01:00013104 ?getCRLFconversion@inputStream_binary@@SGPAUboolean_struct@_builtIn@@QAVstream@@@@Z 
01:0001311C ?setCRLFconversion@inputStream_binary@@SGXQAVstream@@@PAUboolean_struct@_builtIn@@@Z 
01:00013144 ?getPosition@inputStream_binary@@SGPBUfileSize@fileSystem_api@@QAVstream@@@@Z 
01:00013168 ?setPosition@inputStream_binary@@SGXQAVstream@@@PBUfileSize@fileSystem_api@@@Z 
01:000131D4 ?getBuffer@inputStream_binary@@SGXQAVbufferSupport@@@PAPAXAAUbyteCount@@@Z 
01:000131F0 ?getBufferLocked@inputStream_binary@@SGXQAVbufferSupport@@@PAPAXAAUbyteCount@@@Z 
01:0001320C ?_new@inputStream_binary@@SAXQAEPAPAVinputStream@@@@Z  (Idle)
01:00013234 ?_new_pointer@inputStream_binary@@SAXPAXPBUbyteCount@core@@PAPAVinputStream@@@@Z  (Idle)
01:00013260 ?_object_facts_initializer@inputStream_binary@@SGXQAV1@@@Z 
01:00013278 ?raise_invalidCompressionFormat_explicit@binary_exception@@SAXPAUprogramPoint_struct@core@@QAE@Z  (Idle)
01:000132EC ?raise_internalDecodeError_explicit@binary_exception@@SAXPAUprogramPoint_struct@core@@QAE@Z  (Idle)
--- From 'Obj\arraym_inline.0A13D119.obj'
01:00013360 ?raise_indexOutOfRange_explicit@binary_exception@@SAXPAUprogramPoint_struct@core@@PBUbyteCount@@11@Z 
--- From 'Obj\binary.A4D00680.obj'
01:0001348C ?raise_wrongBinaryFormat_explicit@binary_exception@@SAXPAUprogramPoint_struct@core@@QAE@Z  (Idle)
01:00013500 ?raise_wrongBinaryFormat_explicit@binary_exception@@SAXPAUprogramPoint_struct@core@@PBUbinaryNonAtomic@@@Z  (Idle)
01:00013574 ?_create0binaryAtomic@binary@@SAXQAPAE@Z  (Idle)
01:00013594 ?_create0binaryNonAtomic@binary@@SAXAAU2@@Z  (Idle)
01:000135B4 ?_createNonAtomic@binary@@SAXPBUbyteCount@@AAUbinaryNonAtomic@@@Z  (Idle)
01:000135F4 ?_createNonAtomic@binary@@SAXPBUpositive@@PBUbyteCount@@AAUbinaryNonAtomic@@@Z  (Idle)
--- From 'Obj\filesystem.AD950C87.obj'
01:00013614 ?_createAtomic@binary@@SAXPBUbyteCount@@QAPAE@Z 
--- From 'Obj\binary.A4D00680.obj'
01:00013658 ?_createAtomic@binary@@SAXPBUpositive@@PBUbyteCount@@QAPAE@Z  (Idle)
01:00013678 ?_makeBinary@binary@@SAXPBUbyteCount@@QAPAE@Z 
01:000136D0 ?_makeBinaryNonAtomic@binary@@SAXPBUbyteCount@@AAUbinaryNonAtomic@@@Z 
01:00013728 ?_allocateNonAtomicBinary@binary@@SAXPBUbyteCount@@PAPAX@Z 
01:00013774 ?_createCopyNonAtomic@binary@@SAXPBUbinaryNonAtomic@@AAU2@@Z  (Idle)
01:000137F0 ?_createCopyAtomic@binary@@SAXQAEQAPAE@Z  (Idle)
01:00013870 ?_createNonAtomicFromPointer@binary@@SAXPAXPBUbyteCount@@AAUbinaryNonAtomic@@@Z  (Idle)
01:000138B4 ?_createAtomicFromPointer@binary@@SAXPAXPBUbyteCount@@QAPAE@Z 
01:000138F8 ?_createAtomicFromIntegerList@binary@@SAXPAU?$__packedList_struct@Uinteger@@@@QAPAE@Z  (Idle)
--- From 'Obj\filesystem.AD950C87.obj'
01:00013950 ?_getSize@binary@@SAXQAEAAUbyteCount@@@Z 
--- From 'Obj\binary.A4D00680.obj'
01:0001396C ?_getBinaryHeaderPtr@binary@@SAXQAEPAPAX@Z  (Idle)
01:000139A4 ?_reSizeNonAtomic@binary@@SAXPBUbinaryNonAtomic@@PBUbyteCount@@AAU2@@Z  (Idle)
01:00013A50 ?_reSizeAtomic@binary@@SAXQAEPBUbyteCount@@QAPAE@Z  (Idle)
01:00013AFC ?_concatNonAtomic@binary@@SAXPBUbinaryNonAtomic@@0AAU2@@Z  (Idle)
01:00013B74 ?_concatAtomic@binary@@SAXQAEQAEQAPAE@Z  (Idle)
01:00013BEC ?_insertAtomic@binary@@SAXQAEPBUbyteCount@@QAEQAPAE@Z  (Idle)
01:00013CC4 ?_insertNonAtomic@binary@@SAXPBUbinaryNonAtomic@@PBUbyteCount@@QAEAAU2@@Z  (Idle)
01:00013D9C ?_deleteAtomic@binary@@SAXQAEPBUbyteCount@@1QAPAE@Z  (Idle)
01:00013E3C ?_deleteNonAtomic@binary@@SAXPBUbinaryNonAtomic@@PBUbyteCount@@1AAU2@@Z  (Idle)
01:00013EDC ?_getIndexed_unsigned8@binary@@SAXQAEPBUpositive@@AAU3@@Z  (Idle)
--- From 'Obj\filesystem.AD950C87.obj'
01:00013F28 ?_getIndexed_unsigned16@binary@@SAXQAEPBUpositive@@AAU3@@Z 
--- From 'Obj\binary.A4D00680.obj'
01:00013F78 ?_getIndexed_unsigned64@binary@@SAXQAEPBUpositive@@PAPA_K@Z  (Idle)
01:00013FC8 ?_getIndexed_integer8@binary@@SAXQAEPBUpositive@@AAU3@@Z  (Idle)
01:00014014 ?_getIndexed_integer16@binary@@SAXQAEPBUpositive@@AAU3@@Z  (Idle)
01:00014064 ?_getIndexed_integer64@binary@@SAXQAEPBUpositive@@PAPA_J@Z  (Idle)
--- From 'Obj\exception.B3237F89.obj'
01:000140B4 ?_getIndexed_unsignedNative@binary@@SAXQAEPBUpositive@@AAU3@@Z 
--- From 'Obj\binary.A4D00680.obj'
01:00014104 ?_getIndexed_unsigned@binary@@SAXQAEPBUpositive@@PAI@Z  (Idle)
01:00014154 ?_getIndexed_integerNative@binary@@SAXQAEPBUpositive@@AAU3@@Z  (Idle)
01:000141A4 ?_getIndexed_integer@binary@@SAXQAEPBUpositive@@PAH@Z  (Idle)
01:000141F4 ?_getIndexed_real32@binary@@SAXQAEPBUpositive@@PAM@Z  (Idle)
01:00014244 ?_getIndexed_real@binary@@SAXQAEPBUpositive@@PAPAN@Z  (Idle)
01:00014294 ?_getIndexed_pointer@binary@@SAXPBUbinaryNonAtomic@@PBUpositive@@PAPAX@Z  (Idle)
01:000142E4 ?_getIndexed_object@binary@@SAXPBUbinaryNonAtomic@@PBUpositive@@PAPAV4@@@Z  (Idle)
01:00014340 ?_getIndexed_string@binary@@SAXPBUbinaryNonAtomic@@PBUpositive@@PAPB_W@Z  (Idle)
01:0001439C ?setIndexed_unsigned8@binary@@SAXQAEPBUpositive@@PBU3@@Z  (Idle)
01:000143E8 ?setIndexed_unsigned16@binary@@SAXQAEPBUpositive@@PBU3@@Z  (Idle)
01:00014438 ?setIndexed_unsigned64@binary@@SAXQAEPBUpositive@@PA_K@Z  (Idle)
01:00014488 ?setIndexed_integer8@binary@@SAXQAEPBUpositive@@PBU3@@Z  (Idle)
01:000144D4 ?setIndexed_integer16@binary@@SAXQAEPBUpositive@@PBU3@@Z  (Idle)
01:00014524 ?setIndexed_integer64@binary@@SAXQAEPBUpositive@@PA_J@Z  (Idle)
01:00014574 ?setIndexed_integerNative@binary@@SAXQAEPBUpositive@@PBU3@@Z  (Idle)
01:000145C4 ?setIndexed_integer@binary@@SAXQAEPBUpositive@@H@Z  (Idle)
01:00014614 ?setIndexed_unsignedNative@binary@@SAXQAEPBUpositive@@PBU3@@Z  (Idle)
01:00014664 ?setIndexed_unsigned@binary@@SAXQAEPBUpositive@@I@Z  (Idle)
01:000146B4 ?setIndexed_real32@binary@@SAXQAEPBUpositive@@M@Z  (Idle)
01:00014704 ?setIndexed_real@binary@@SAXQAEPBUpositive@@PAN@Z  (Idle)
01:00014754 ?setIndexed_pointer@binary@@SAXPBUbinaryNonAtomic@@PBUpositive@@PAX@Z  (Idle)
01:000147A4 ?setIndexed_object@binary@@SAXPBUbinaryNonAtomic@@PBUpositive@@QAV4@@@Z  (Idle)
01:000147F4 ?setIndexed_string@binary@@SAXPBUbinaryNonAtomic@@PBUpositive@@PB_W@Z  (Idle)
01:00014844 ?_getBinaryNonAtomic@binary@@SAXPBUbinaryNonAtomic@@PBUbyteCount@@1AAU2@@Z  (Idle)
01:000148E4 ?_getBinaryAtomic@binary@@SAXQAEPBUbyteCount@@1QAPAE@Z  (Idle)
01:00014984 ?setBinaryNonAtomic@binary@@SAXPBUbinaryNonAtomic@@PBUbyteCount@@QAE@Z  (Idle)
01:00014A24 ?setBinaryAtomic@binary@@SAXQAEPBUbyteCount@@QAE@Z  (Idle)
01:00014AD4 ?setValue@binary@@SAXQAEPBUbyteCount@@PAUvalue_struct@core@@@Z  (Idle)
01:00015014 $getValue$binary_class$predicate$(i,i,unsigned64(o))$b$_c89  (Idle)
01:00015068 ?_getString@binary@@SAXPAXPBUcharCount@@PAPB_W@Z  (Idle)
01:0001515C ?checkOffsetForSetGetValue@binary@@SAXQAEPBUbyteCount@@1@Z 
01:0001519C ?fillFromIntegerList@binary@@SAXQAEPBUpositive@@PAU?$__packedList_struct@Uinteger@@@@@Z 
01:000151E4 ?copyTailIfNeeded@binary@@SAXQAEPBUbyteCount@@1QAE1@Z 
01:00015248 ?splitBinaryNonAtomic@binary@@SAXPBUbinaryNonAtomic@@PBUbyteCount@@AAU2@2@Z  (Idle)
01:00015288 ?splitBinaryAtomic@binary@@SAXQAEPBUbyteCount@@QAPAE2@Z  (Idle)
01:000152C8 ?_binaryToStringList@binary@@SAXQAEPAPAU?$__packedList_struct@Ustring@@@@@Z  (Idle)
01:00015304 ?_getStringList@binary@@SAXPAXPBUbyteCount@@PAPAU?$__packedList_struct@Ustring@@@@@Z 
01:00015460 ?_search@binary@@SAXQAEQAEAAUbyteCount@@@Z  (Idle)
01:000154A8 ?_binary8ToStringList@binary@@SAXQAEPAPAU?$__packedList_struct@Ustring@@@@@Z  (Idle)
01:000154C4 ?_binary8ToStringList@binary@@SAXQAEPBUcodePage@@PAPAU?$__packedList_struct@Ustring@@@@@Z 
01:0001550C ?_getStringListForBinary8@binary@@SAXPAXPBUbyteCount@@PBUcodePage@@PAPAU?$__packedList_struct@Ustring@@@@@Z 
01:0001564C binaryIsAtomicExpectedNonAtomic 
01:00015678 doNothing 
01:00015680 ?_calculateCRC@binary@@SAXQAEPAI@Z  (Idle)
01:0001569C ?_getPointer2nullaryBinary@binary@@SAXPAPAX@Z 
01:000156B0 ?_getSize@binary@@SAXPBUbinaryNonAtomic@@AAUbyteCount@@@Z 
01:000156CC ?_getBinaryHeaderPtr@binary@@SAXPBUbinaryNonAtomic@@PAPAX@Z  (Idle)
01:00015704 ?_insertNonAtomic@binary@@SAXPBUbinaryNonAtomic@@PBUbyteCount@@0AAU2@@Z  (Idle)
01:000157DC ?_getIndexed_unsigned8@binary@@SAXPBUbinaryNonAtomic@@PBUpositive@@AAU4@@Z  (Idle)
01:00015828 ?_getIndexed_unsigned16@binary@@SAXPBUbinaryNonAtomic@@PBUpositive@@AAU4@@Z  (Idle)
01:00015878 ?_getIndexed_unsigned64@binary@@SAXPBUbinaryNonAtomic@@PBUpositive@@PAPA_K@Z  (Idle)
01:000158C8 ?_getIndexed_integer8@binary@@SAXPBUbinaryNonAtomic@@PBUpositive@@AAU4@@Z  (Idle)
01:00015914 ?_getIndexed_integer16@binary@@SAXPBUbinaryNonAtomic@@PBUpositive@@AAU4@@Z  (Idle)
01:00015964 ?_getIndexed_integer64@binary@@SAXPBUbinaryNonAtomic@@PBUpositive@@PAPA_J@Z  (Idle)
01:000159B4 ?_getIndexed_unsignedNative@binary@@SAXPBUbinaryNonAtomic@@PBUpositive@@AAU4@@Z  (Idle)
01:00015A04 ?_getIndexed_unsigned@binary@@SAXPBUbinaryNonAtomic@@PBUpositive@@PAI@Z  (Idle)
01:00015A54 ?_getIndexed_integerNative@binary@@SAXPBUbinaryNonAtomic@@PBUpositive@@AAU4@@Z  (Idle)
01:00015AA4 ?_getIndexed_integer@binary@@SAXPBUbinaryNonAtomic@@PBUpositive@@PAH@Z  (Idle)
01:00015AF4 ?_getIndexed_real32@binary@@SAXPBUbinaryNonAtomic@@PBUpositive@@PAM@Z  (Idle)
01:00015B44 ?_getIndexed_real@binary@@SAXPBUbinaryNonAtomic@@PBUpositive@@PAPAN@Z  (Idle)
01:00015B94 ?setIndexed_unsigned8@binary@@SAXPBUbinaryNonAtomic@@PBUpositive@@PBU4@@Z  (Idle)
01:00015BE0 ?setIndexed_unsigned16@binary@@SAXPBUbinaryNonAtomic@@PBUpositive@@PBU4@@Z  (Idle)
01:00015C30 ?setIndexed_unsigned64@binary@@SAXPBUbinaryNonAtomic@@PBUpositive@@PA_K@Z  (Idle)
01:00015C80 ?setIndexed_integer8@binary@@SAXPBUbinaryNonAtomic@@PBUpositive@@PBU4@@Z  (Idle)
01:00015CCC ?setIndexed_integer16@binary@@SAXPBUbinaryNonAtomic@@PBUpositive@@PBU4@@Z  (Idle)
01:00015D1C ?setIndexed_integer64@binary@@SAXPBUbinaryNonAtomic@@PBUpositive@@PA_J@Z  (Idle)
01:00015D6C ?setIndexed_integerNative@binary@@SAXPBUbinaryNonAtomic@@PBUpositive@@PBU4@@Z  (Idle)
01:00015DBC ?setIndexed_integer@binary@@SAXPBUbinaryNonAtomic@@PBUpositive@@H@Z  (Idle)
01:00015E0C ?setIndexed_unsignedNative@binary@@SAXPBUbinaryNonAtomic@@PBUpositive@@PBU4@@Z  (Idle)
01:00015E5C ?setIndexed_unsigned@binary@@SAXPBUbinaryNonAtomic@@PBUpositive@@I@Z  (Idle)
01:00015EAC ?setIndexed_real32@binary@@SAXPBUbinaryNonAtomic@@PBUpositive@@M@Z  (Idle)
01:00015EFC ?setIndexed_real@binary@@SAXPBUbinaryNonAtomic@@PBUpositive@@PAN@Z  (Idle)
01:00015F4C ?setBinaryNonAtomic@binary@@SAXPBUbinaryNonAtomic@@PBUbyteCount@@0@Z  (Idle)
01:00015FEC ?setBinaryAtomic@binary@@SAXPBUbinaryNonAtomic@@PBUbyteCount@@QAE@Z  (Idle)
01:0001609C ?setBinaryAtomic@binary@@SAXPBUbinaryNonAtomic@@PBUbyteCount@@0@Z  (Idle)
01:0001614C ?setValue@binary@@SAXPBUbinaryNonAtomic@@PBUbyteCount@@PAUvalue_struct@core@@@Z  (Idle)
01:0001668C $getValue$binary_class$predicate$(i,i,unsigned(o))$b$_c90  (Idle)
01:000166E0 $getValue$binary_class$predicate$(i,i,integer64(o))$b$_c91  (Idle)
01:00016734 $getValue$binary_class$predicate$(i,i,integer(o))$b$_c92 
01:00016788 $getValue$binary_class$predicate$(i,i,real(o))$b$_c93  (Idle)
01:000167DC $getValue$binary_class$predicate$(i,i,char(o))$b$_c94  (Idle)
01:00016834 $getValue$binary_class$predicate$(i,i,string(o))$b$_c95  (Idle)
01:000168A4 $getValue$binary_class$predicate$(i,i,localtimevalue(o))$b$_c96  (Idle)
01:000168F8 $getValue$binary_class$predicate$(i,i,gmttimevalue(o))$b$_c97  (Idle)
01:0001694C $getValue$binary_class$predicate$(i,i,unsigned64(o))$b$_c98  (Idle)
01:000169A0 $getValue$binary_class$predicate$(i,i,unsigned(o))$b$_c99  (Idle)
01:000169F4 $getValue$binary_class$predicate$(i,i,integer64(o))$b$_c100  (Idle)
01:00016A48 $getValue$binary_class$predicate$(i,i,integer(o))$b$_c101  (Idle)
01:00016A9C $getValue$binary_class$predicate$(i,i,real(o))$b$_c102  (Idle)
01:00016AF0 $getValue$binary_class$predicate$(i,i,pointer(o))$b$_c103  (Idle)
01:00016B44 $getValue$binary_class$predicate$(i,i,object(o))$b$_c104  (Idle)
01:00016B98 $getValue$binary_class$predicate$(i,i,char(o))$b$_c105  (Idle)
01:00016BF0 $getValue$binary_class$predicate$(i,i,string(o))$b$_c106  (Idle)
01:00016C60 $getValue$binary_class$predicate$(i,i,localtimevalue(o))$b$_c107  (Idle)
01:00016CB4 $getValue$binary_class$predicate$(i,i,gmttimevalue(o))$b$_c108  (Idle)
01:00016D08 ?checkOffsetForSetGetValue@binary@@SAXPBUbinaryNonAtomic@@PBUbyteCount@@1@Z 
01:00016D48 ?copyTailIfNeeded@binary@@SAXPBUbinaryNonAtomic@@PBUbyteCount@@101@Z 
01:00016FB8 outputStream_binary?_initObject@@@QAGXQAV1@H@Z 
01:00016FEC ?@create_object@outputStream_binary@@SGQAV1@@XZ 
01:00017008 outputStream_binary?_InternalFinalizer@@@QAGXQAV1@@Z 
01:00017294 inputStream_binary?_initObject@@@QAGXQAV1@H@Z 
01:000172C8 ?@create_object@inputStream_binary@@SGQAV1@@XZ 
01:000172E4 inputStream_binary?_InternalFinalizer@@@QAGXQAV1@@Z 
--- From 'Obj\boolean.E82F26DC.obj'
01:00017300 ?_toBooleanInt@boolean@@SAXPAUboolean_struct@_builtIn@@AAUbooleanInt@@@Z 
01:00017324 ?_fromBooleanInt@boolean@@SAXPBUbooleanInt@@PAPAUboolean_struct@_builtIn@@@Z 
01:00017348 ?_logicalNot@boolean@@SAXPAUboolean_struct@_builtIn@@PAPAU23@@Z 
01:0001736C ?_logicalAnd@boolean@@SAXPAUboolean_struct@_builtIn@@0PAPAU23@@Z 
01:000173A8 ?_logicalOr@boolean@@SAXPAUboolean_struct@_builtIn@@0PAPAU23@@Z 
01:000173E4 ?_logicalXor@boolean@@SAXPAUboolean_struct@_builtIn@@0PAPAU23@@Z 
01:0001740C ?_ifExp@boolean@@SAXQAVrTypeLibrary@TypeLibraries@RunTime@VIP@@PAUboolean_struct@_builtIn@@PAXPAXPAPAX@Z  (Idle)
--- From 'Obj\redblackset.81A33291.obj'
01:00017430 ?_anonymous$c0$1$empty/0$redBlackSet@1@SAXPAUanonymous$c0$1$empty/0$redBlackSetc_struct@1@PAXPAXPAPAUcompareResult_struct@_builtIn@@@Z 
--- From 'Obj\setm_redblack.5372EEBC.obj'
01:00017448 ?_empty@redBlackSet@@SAXQAVrTypeLibrary@TypeLibraries@RunTime@VIP@@PAPAUset_struct@1@PAPAX@Z 
01:0001749C ?_emptyCustom@redBlackSet@@SAXQAVrTypeLibrary@TypeLibraries@RunTime@VIP@@XPAPAUset_struct@1@PAPAX@Z 
01:000174C8 ?_emptySameKind@redBlackSet@@SAXQAVrTypeLibrary@TypeLibraries@RunTime@VIP@@PAUset_struct@1@PAXPAPAU21@PAPAX@Z 
--- From 'Obj\redblackset.81A33291.obj'
01:00017500 ?isEmpty@redBlackSet@@SAXQAVrTypeLibrary@TypeLibraries@RunTime@VIP@@PAUset_struct@1@PAX@Z  (Idle)
--- From 'Obj\setm_redblack.5372EEBC.obj'
01:00017518 ?_insert@redBlackSet@@SAXQAVrTypeLibrary@TypeLibraries@RunTime@VIP@@PAUset_struct@1@PAXPAXPAPAU21@PAPAX@Z 
01:00017578 ?_delete@redBlackSet@@SAXQAVrTypeLibrary@TypeLibraries@RunTime@VIP@@PAUset_struct@1@PAXPAXPAPAU21@PAPAX@Z 
--- From 'Obj\redblackset.81A33291.obj'
01:000175D8 ?_tryDeleteFirst@redBlackSet@@SAXQAVrTypeLibrary@TypeLibraries@RunTime@VIP@@PAUset_struct@1@PAXPAPAXPAPAU21@PAPAX@Z  (Idle)
--- From 'Obj\setm_redblack.5372EEBC.obj'
01:00017608 ?isMember@redBlackSet@@SAXQAVrTypeLibrary@TypeLibraries@RunTime@VIP@@PAXPAUset_struct@1@PAX@Z 
01:0001763C ?_getAll_nd@redBlackSet@@SAXQAVrTypeLibrary@TypeLibraries@RunTime@VIP@@PAUset_struct@1@PAXPAPAX@Z 
--- From 'Obj\redblackset.81A33291.obj'
01:00017654 ?_getAll_multi@redBlackSet@@SAXQAVrTypeLibrary@TypeLibraries@RunTime@VIP@@PAUset_struct@1@PAXPAPAX@Z  (Idle)
--- From 'Obj\setm_redblack.5372EEBC.obj'
01:0001766C ?_upFrom_nd@redBlackSet@@SAXQAVrTypeLibrary@TypeLibraries@RunTime@VIP@@PAUset_struct@1@PAXPAXPAPAX@Z 
--- From 'Obj\redblackset.81A33291.obj'
01:000176A8 ?_up_nd@redBlackSet@@SAXQAVrTypeLibrary@TypeLibraries@RunTime@VIP@@PAUset_struct@1@PAXPAPAX@Z  (Idle)
01:000176C0 ?_tryGetMin@redBlackSet@@SAXQAVrTypeLibrary@TypeLibraries@RunTime@VIP@@PAUset_struct@1@PAXPAPAX@Z  (Idle)
--- From 'Obj\setm_redblack.5372EEBC.obj'
01:000176E4 ?_downFrom_nd@redBlackSet@@SAXQAVrTypeLibrary@TypeLibraries@RunTime@VIP@@PAUset_struct@1@PAXPAXPAPAX@Z 
--- From 'Obj\redblackset.81A33291.obj'
01:00017720 ?_down_nd@redBlackSet@@SAXQAVrTypeLibrary@TypeLibraries@RunTime@VIP@@PAUset_struct@1@PAXPAPAX@Z  (Idle)
01:00017738 ?_tryGetMax@redBlackSet@@SAXQAVrTypeLibrary@TypeLibraries@RunTime@VIP@@PAUset_struct@1@PAXPAPAX@Z  (Idle)
01:0001775C ?find_nd_rep@redBlackSet@@SAXQAVrTypeLibrary@TypeLibraries@RunTime@VIP@@XPAXPAUsetRep_struct@1@PAX@Z 
01:000177CC ?find_nd_rep1@redBlackSet@@SAXQAVrTypeLibrary@TypeLibraries@RunTime@VIP@@XPAUcompareResult_struct@_builtIn@@PAXPAUsetRep_struct@1@PAX4@Z 
01:00017810 ?_get_nd_rep@redBlackSet@@SAXQAVrTypeLibrary@TypeLibraries@RunTime@VIP@@PAUsetRep_struct@1@PAXPAPAX@Z 
01:000178A0 ?_get_multi_rep@redBlackSet@@SAXQAVrTypeLibrary@TypeLibraries@RunTime@VIP@@PAUsetRep_struct@1@PAXPAPAX@Z 
01:00017978 ?_upFrom_nd_rep@redBlackSet@@SAXQAVrTypeLibrary@TypeLibraries@RunTime@VIP@@XPAXPAUsetRep_struct@1@PAXPAPAX@Z 
01:000179FC ?_upFrom_nd_rep1@redBlackSet@@SAXQAVrTypeLibrary@TypeLibraries@RunTime@VIP@@XPAUcompareResult_struct@_builtIn@@PAXPAUsetRep_struct@1@PAXPAX4PAPAX@Z 
01:00017AB0 ?_downFrom_nd_rep@redBlackSet@@SAXQAVrTypeLibrary@TypeLibraries@RunTime@VIP@@XPAXPAUsetRep_struct@1@PAXPAPAX@Z 
01:00017B34 ?_downFrom_nd_rep1@redBlackSet@@SAXQAVrTypeLibrary@TypeLibraries@RunTime@VIP@@XPAUcompareResult_struct@_builtIn@@PAXPAUsetRep_struct@1@PAXPAX4PAPAX@Z 
01:00017BE8 ?_down_nd_rep@redBlackSet@@SAXQAVrTypeLibrary@TypeLibraries@RunTime@VIP@@PAUsetRep_struct@1@PAXPAPAX@Z 
01:00017C78 ?tryGetNode@redBlackSet@@SAXQAVrTypeLibrary@TypeLibraries@RunTime@VIP@@PAUsetRep_struct@1@PAXPAPAU21@PAPAXPAPAX2@Z 
01:00017CE8 ?_insert_rep@redBlackSet@@SAXQAVrTypeLibrary@TypeLibraries@RunTime@VIP@@XPAXPAUsetRep_struct@1@PAXPAPAU21@PAPAX@Z 
01:00017D40 ?_tryIns@redBlackSet@@SAXQAVrTypeLibrary@TypeLibraries@RunTime@VIP@@XPAXPAUsetRep_struct@1@PAXPAPAU21@PAPAX@Z 
01:00017E90 ?_tryIns_black@redBlackSet@@SAXQAVrTypeLibrary@TypeLibraries@RunTime@VIP@@XPAUcompareResult_struct@_builtIn@@PAXPAUsetRep_struct@1@PAXPAX4PAPAU41@PAPAX@Z 
01:00017F24 ?_tryIns_red@redBlackSet@@SAXQAVrTypeLibrary@TypeLibraries@RunTime@VIP@@XPAUcompareResult_struct@_builtIn@@PAXPAUsetRep_struct@1@PAXPAX4PAPAU41@PAPAX@Z 
01:00017FC8 ?_balance@redBlackSet@@SAXQAVrTypeLibrary@TypeLibraries@RunTime@VIP@@PAUsetRep_struct@1@PAXPAX1PAPAU21@PAPAX@Z 
01:000187FC ?_makeblack@redBlackSet@@SAXQAVrTypeLibrary@TypeLibraries@RunTime@VIP@@PAUsetRep_struct@1@PAXPAPAU21@PAPAX@Z 
01:00018870 ?_delete_rep@redBlackSet@@SAXQAVrTypeLibrary@TypeLibraries@RunTime@VIP@@XPAXPAUsetRep_struct@1@PAXPAPAU21@PAPAX@Z 
01:000188C0 ?del@redBlackSet@@SAXQAVrTypeLibrary@TypeLibraries@RunTime@VIP@@XPAXPAUsetRep_struct@1@PAXPAPAU21@PAPAXPAPAUboolean_struct@_builtIn@@@Z 
01:0001897C ?del1@redBlackSet@@SAXQAVrTypeLibrary@TypeLibraries@RunTime@VIP@@XPAUcompareResult_struct@_builtIn@@PAXPAUsetRep_struct@1@PAXPAX4PAPAU41@PAPAXPAPAUboolean_struct@3@@Z 
01:00018A10 ?delLeft@redBlackSet@@SAXQAVrTypeLibrary@TypeLibraries@RunTime@VIP@@XPAXPAUsetRep_struct@1@PAXPAX3PAPAU21@PAPAXPAPAUboolean_struct@_builtIn@@@Z 
01:00018AB0 ?delRight@redBlackSet@@SAXQAVrTypeLibrary@TypeLibraries@RunTime@VIP@@XPAXPAUsetRep_struct@1@PAXPAX3PAPAU21@PAPAXPAPAUboolean_struct@_builtIn@@@Z 
01:00018B58 ?_balLeft@redBlackSet@@SAXQAVrTypeLibrary@TypeLibraries@RunTime@VIP@@PAUsetRep_struct@1@PAXPAX1PAPAU21@PAPAX@Z 
01:00018E0C ?_balRight@redBlackSet@@SAXQAVrTypeLibrary@TypeLibraries@RunTime@VIP@@PAUsetRep_struct@1@PAXPAX1PAPAU21@PAPAX@Z 
01:000190C4 ?_sub1@redBlackSet@@SAXQAVrTypeLibrary@TypeLibraries@RunTime@VIP@@PAUsetRep_struct@1@PAXPAPAU21@PAPAX@Z 
01:0001914C ?_mkNode@redBlackSet@@SAXQAVrTypeLibrary@TypeLibraries@RunTime@VIP@@PAUsetRep_struct@1@PAX1PAPAU21@PAPAX@Z 
01:000193FC ?_mkNodeRR_BC@redBlackSet@@SAXQAVrTypeLibrary@TypeLibraries@RunTime@VIP@@PAUsetRep_struct@1@PAXPAX1PAX1PAPAU21@PAPAX@Z 
01:000194F8 ?_mkNodeBB_BC@redBlackSet@@SAXQAVrTypeLibrary@TypeLibraries@RunTime@VIP@@PAUsetRep_struct@1@PAXPAX1PAX1PAPAU21@PAPAX@Z 
--- From 'Obj\redblacktree.34565F50.obj'
01:000195F0 ?_anonymous$c0$1$empty/0$redBlackTree@1@SAXPAUanonymous$c0$1$empty/0$redBlackTreec_struct@1@PAXPAXPAPAUcompareResult_struct@_builtIn@@@Z 
01:00019608 ?_empty@redBlackTree@@SAXQAVrTypeLibrary@TypeLibraries@RunTime@VIP@@0PAPAUtree_struct@1@PAPAXPAPAX@Z  (Idle)
01:0001967C ?_anonymous$c0$1$emptyUnique/0$redBlackTree@1@SAXPAUanonymous$c0$1$emptyUnique/0$redBlackTreec_struct@1@PAXPAXPAPAUcompareResult_struct@_builtIn@@@Z 
--- From 'Obj\mapm_redblack.88A5A755.obj'
01:00019694 ?_emptyUnique@redBlackTree@@SAXQAVrTypeLibrary@TypeLibraries@RunTime@VIP@@0PAPAUtree_struct@1@PAPAXPAPAX@Z 
--- From 'Obj\redblacktree.34565F50.obj'
01:00019708 ?_emptyCustom@redBlackTree@@SAXQAVrTypeLibrary@TypeLibraries@RunTime@VIP@@0XPAPAUtree_struct@1@PAPAXPAPAX@Z  (Idle)
--- From 'Obj\mapm_redblack.88A5A755.obj'
01:00019754 ?_emptyCustomUnique@redBlackTree@@SAXQAVrTypeLibrary@TypeLibraries@RunTime@VIP@@0XPAPAUtree_struct@1@PAPAXPAPAX@Z 
01:000197A0 ?_emptySameKind@redBlackTree@@SAXQAVrTypeLibrary@TypeLibraries@RunTime@VIP@@0PAUtree_struct@1@PAXPAXPAPAU21@PAPAXPAPAX@Z 
--- From 'Obj\redblacktree.34565F50.obj'
01:000197D8 ?isEmpty@redBlackTree@@SAXQAVrTypeLibrary@TypeLibraries@RunTime@VIP@@0PAUtree_struct@1@PAXPAX@Z  (Idle)
--- From 'Obj\mapm_redblack.88A5A755.obj'
01:000197F8 ?_insert@redBlackTree@@SAXQAVrTypeLibrary@TypeLibraries@RunTime@VIP@@0PAUtree_struct@1@PAXPAXPAXPAXPAPAU21@PAPAXPAPAX@Z 
--- From 'Obj\redblacktree.34565F50.obj'
01:00019860 ?_delete@redBlackTree@@SAXQAVrTypeLibrary@TypeLibraries@RunTime@VIP@@0PAUtree_struct@1@PAXPAXPAXPAXPAPAU21@PAPAXPAPAX@Z  (Idle)
--- From 'Obj\mapm_redblack.88A5A755.obj'
01:000198C8 ?_tryDeleteOne@redBlackTree@@SAXQAVrTypeLibrary@TypeLibraries@RunTime@VIP@@0PAUtree_struct@1@PAXPAXPAXPAPAXPAPAU21@PAPAXPAPAX@Z 
--- From 'Obj\redblacktree.34565F50.obj'
01:00019930 ?_tryDeleteFirst@redBlackTree@@SAXQAVrTypeLibrary@TypeLibraries@RunTime@VIP@@0PAUtree_struct@1@PAXPAXPAPAX3PAPAU21@PAPAXPAPAX@Z  (Idle)
01:0001997C ?_lookUp_nd@redBlackTree@@SAXQAVrTypeLibrary@TypeLibraries@RunTime@VIP@@0PAUtree_struct@1@PAXPAXPAXPAPAX@Z  (Idle)
--- From 'Obj\mapm_redblack.88A5A755.obj'
01:000199B8 ?_tryLookUp@redBlackTree@@SAXQAVrTypeLibrary@TypeLibraries@RunTime@VIP@@0PAUtree_struct@1@PAXPAXPAXPAPAX@Z 
01:000199E0 ?_getAll_nd@redBlackTree@@SAXQAVrTypeLibrary@TypeLibraries@RunTime@VIP@@0PAUtree_struct@1@PAXPAXPAPAUtuple_struct@core@@PAPAXPAPAX@Z 
01:00019A34 ?_upFrom_nd@redBlackTree@@SAXQAVrTypeLibrary@TypeLibraries@RunTime@VIP@@0PAUtree_struct@1@PAXPAXPAXPAPAUtuple_struct@core@@PAPAXPAPAX@Z 
01:00019A70 ?_downFrom_nd@redBlackTree@@SAXQAVrTypeLibrary@TypeLibraries@RunTime@VIP@@0PAUtree_struct@1@PAXPAXPAXPAPAUtuple_struct@core@@PAPAXPAPAX@Z 
--- From 'Obj\redblacktree.34565F50.obj'
01:00019AAC ?_comp@redBlackTree@@SAXQAVrTypeLibrary@TypeLibraries@RunTime@VIP@@PAUtreeProperty_struct@1@PAXPAXPAXPAPAUcompareResult_struct@_builtIn@@@Z  (Idle)
01:00019ADC ?tryGetNode@redBlackTree@@SAXQAVrTypeLibrary@TypeLibraries@RunTime@VIP@@0PAUtreeRep_struct@1@PAXPAXPAPAU21@PAPAXPAPAXPAPAX43@Z  (Idle)
01:00019B5C ?_find_nd_rep@redBlackTree@@SAXQAVrTypeLibrary@TypeLibraries@RunTime@VIP@@0PAUtreeProperty_struct@1@PAXPAXPAUtreeRep_struct@1@PAXPAXPAPAX@Z 
01:00019BE0 ?_find_nd_rep1@redBlackTree@@SAXQAVrTypeLibrary@TypeLibraries@RunTime@VIP@@0PAUtreeProperty_struct@1@PAXPAUcompareResult_struct@_builtIn@@PAXPAUtreeRep_struct@1@PAXPAXPAX5PAPAX@Z 
01:00019CC4 ?get_nd_rep@redBlackTree@@SAXQAVrTypeLibrary@TypeLibraries@RunTime@VIP@@0PAUtreeRep_struct@1@PAXPAXPAPAX3@Z 
01:00019D74 ?_upFrom_nd_rep@redBlackTree@@SAXQAVrTypeLibrary@TypeLibraries@RunTime@VIP@@0PAUtreeProperty_struct@1@PAXPAXPAUtreeRep_struct@1@PAXPAXPAPAUtuple_struct@core@@PAPAXPAPAX@Z 
01:00019E08 ?_upFrom_nd_rep1@redBlackTree@@SAXQAVrTypeLibrary@TypeLibraries@RunTime@VIP@@0PAUtreeProperty_struct@1@PAXPAUcompareResult_struct@_builtIn@@PAXPAUtreeRep_struct@1@PAXPAXPAXPAX5PAPAUtuple_struct@core@@PAPAXPAPAX@Z 
01:00019ED8 ?_downFrom_nd_rep@redBlackTree@@SAXQAVrTypeLibrary@TypeLibraries@RunTime@VIP@@0PAUtreeProperty_struct@1@PAXPAXPAUtreeRep_struct@1@PAXPAXPAPAUtuple_struct@core@@PAPAXPAPAX@Z 
01:00019F6C ?_downFrom_nd_rep1@redBlackTree@@SAXQAVrTypeLibrary@TypeLibraries@RunTime@VIP@@0PAUtreeProperty_struct@1@PAXPAUcompareResult_struct@_builtIn@@PAXPAUtreeRep_struct@1@PAXPAXPAXPAX5PAPAUtuple_struct@core@@PAPAXPAPAX@Z 
01:0001A03C ?_insert_rep@redBlackTree@@SAXQAVrTypeLibrary@TypeLibraries@RunTime@VIP@@0PAUtreeProperty_struct@1@PAXPAXPAXPAUtreeRep_struct@1@PAXPAXPAPAU41@PAPAXPAPAX@Z 
01:0001A078 ?_ins@redBlackTree@@SAXQAVrTypeLibrary@TypeLibraries@RunTime@VIP@@0PAUtreeProperty_struct@1@PAXPAXPAXPAUtreeRep_struct@1@PAXPAXPAPAU41@PAPAXPAPAX@Z 
01:0001A204 ?_ins_black@redBlackTree@@SAXQAVrTypeLibrary@TypeLibraries@RunTime@VIP@@0PAUtreeProperty_struct@1@PAXPAUcompareResult_struct@_builtIn@@PAXPAXPAUtreeRep_struct@1@PAXPAXPAXPAX6PAPAU61@PAPAXPAPAX@Z 
01:0001A340 ?_ins_red@redBlackTree@@SAXQAVrTypeLibrary@TypeLibraries@RunTime@VIP@@0PAUtreeProperty_struct@1@PAXPAUcompareResult_struct@_builtIn@@PAXPAXPAUtreeRep_struct@1@PAXPAXPAXPAX6PAPAU61@PAPAXPAPAX@Z 
01:0001A48C ?_balance@redBlackTree@@SAXQAVrTypeLibrary@TypeLibraries@RunTime@VIP@@0PAUtreeRep_struct@1@PAXPAXPAXPAX2PAPAU21@PAPAXPAPAX@Z 
01:0001ADE0 ?_makeblack@redBlackTree@@SAXQAVrTypeLibrary@TypeLibraries@RunTime@VIP@@0PAUtreeRep_struct@1@PAXPAXPAPAU21@PAPAXPAPAX@Z 
01:0001AE60 ?_delete_rep@redBlackTree@@SAXQAVrTypeLibrary@TypeLibraries@RunTime@VIP@@0PAUtreeProperty_struct@1@PAXPAXPAXPAUtreeRep_struct@1@PAXPAXPAPAU41@PAPAXPAPAX@Z 
01:0001AEB4 ?del@redBlackTree@@SAXQAVrTypeLibrary@TypeLibraries@RunTime@VIP@@0PAUtreeProperty_struct@1@PAXPAXPAXPAUtreeRep_struct@1@PAXPAXPAPAU41@PAPAXPAPAXPAPAUboolean_struct@_builtIn@@@Z 
01:0001AF88 ?del1@redBlackTree@@SAXQAVrTypeLibrary@TypeLibraries@RunTime@VIP@@0PAUtreeProperty_struct@1@PAXPAUcompareResult_struct@_builtIn@@PAXPAXPAUtreeRep_struct@1@PAXPAXPAXPAX6PAPAU61@PAPAXPAPAXPAPAUboolean_struct@5@@Z 
01:0001B0DC ?delLeft@redBlackTree@@SAXQAVrTypeLibrary@TypeLibraries@RunTime@VIP@@0PAUtreeProperty_struct@1@PAXPAXPAXPAUtreeRep_struct@1@PAXPAXPAXPAX5PAPAU41@PAPAXPAPAXPAPAUboolean_struct@_builtIn@@@Z 
01:0001B18C ?delRight@redBlackTree@@SAXQAVrTypeLibrary@TypeLibraries@RunTime@VIP@@0PAUtreeProperty_struct@1@PAXPAXPAXPAUtreeRep_struct@1@PAXPAXPAXPAX5PAPAU41@PAPAXPAPAXPAPAUboolean_struct@_builtIn@@@Z 
01:0001B248 ?_tryDeleteOne_rep@redBlackTree@@SAXQAVrTypeLibrary@TypeLibraries@RunTime@VIP@@0PAUtreeProperty_struct@1@PAXPAXPAUtreeRep_struct@1@PAXPAXPAPAXPAPAU41@PAPAXPAPAX@Z 
01:0001B284 ?_tryDel@redBlackTree@@SAXQAVrTypeLibrary@TypeLibraries@RunTime@VIP@@0PAUtreeProperty_struct@1@PAXPAXPAUtreeRep_struct@1@PAXPAXPAPAXPAPAU41@PAPAXPAPAX@Z 
01:0001B324 ?_tryDel1@redBlackTree@@SAXQAVrTypeLibrary@TypeLibraries@RunTime@VIP@@0PAUtreeProperty_struct@1@PAXPAUcompareResult_struct@_builtIn@@PAXPAUtreeRep_struct@1@PAXPAXPAXPAX5PAPAXPAPAU61@PAPAXPAPAX@Z 
01:0001B3C4 ?_tryDelLeft@redBlackTree@@SAXQAVrTypeLibrary@TypeLibraries@RunTime@VIP@@0PAUtreeProperty_struct@1@PAXPAXPAUtreeRep_struct@1@PAXPAXPAXPAX4PAPAXPAPAU41@PAPAXPAPAX@Z 
01:0001B478 ?_tryDelRight@redBlackTree@@SAXQAVrTypeLibrary@TypeLibraries@RunTime@VIP@@0PAUtreeProperty_struct@1@PAXPAXPAUtreeRep_struct@1@PAXPAXPAXPAX4PAPAXPAPAU41@PAPAXPAPAX@Z 
01:0001B538 ?_balLeft@redBlackTree@@SAXQAVrTypeLibrary@TypeLibraries@RunTime@VIP@@0PAUtreeRep_struct@1@PAXPAXPAXPAX2PAPAU21@PAPAXPAPAX@Z 
01:0001B830 ?_balRight@redBlackTree@@SAXQAVrTypeLibrary@TypeLibraries@RunTime@VIP@@0PAUtreeRep_struct@1@PAXPAXPAXPAX2PAPAU21@PAPAXPAPAX@Z 
01:0001BB34 ?_sub1@redBlackTree@@SAXQAVrTypeLibrary@TypeLibraries@RunTime@VIP@@0PAUtreeRep_struct@1@PAXPAXPAPAU21@PAPAXPAPAX@Z 
01:0001BBC4 ?_mkNode@redBlackTree@@SAXQAVrTypeLibrary@TypeLibraries@RunTime@VIP@@0PAUtreeRep_struct@1@PAXPAX2PAPAU21@PAPAXPAPAX@Z 
01:0001BED8 ?_mkNodeRR_BC@redBlackTree@@SAXQAVrTypeLibrary@TypeLibraries@RunTime@VIP@@0PAUtreeRep_struct@1@PAXPAXPAXPAX2PAXPAX2PAPAU21@PAPAXPAPAX@Z 
01:0001BFF4 ?_mkNodeBB_BC@redBlackTree@@SAXQAVrTypeLibrary@TypeLibraries@RunTime@VIP@@0PAUtreeRep_struct@1@PAXPAXPAXPAX2PAXPAX2PAPAU21@PAPAXPAPAX@Z 
--- From 'Obj\collectionmsupport.64B31F2A.obj'
01:0001C110 ?new@collectionSupport@1@SAXQAV1@1@PAXQAVrTypeLibrary@TypeLibraries@RunTime@VIP@@QAVcollectionSite@@1@PAX@Z 
--- From 'Obj\collectionsupport.A87B70B8.obj'
01:0001C124 ?isEmpty@collectionSupport@1@SAXQAV1@1@PAX@Z 
01:0001C16C ?_tryGetFirst@collectionSupport@1@SAXQAV1@1@PAXPAPAX@Z 
01:0001C194 ?asList@collectionSupport@1@SGPAU?$__packedList_struct@PAX@@QAV1@1@PAX@Z 
01:0001C200 ?_new@collectionSupport@1@SAXQAVrTypeLibrary@TypeLibraries@RunTime@VIP@@QAVcollectionSite@@1@PAXPAPAV1@1@PAPAX@Z  (Idle)
01:0001C234 ?_object_typelib_initializer@collectionSupport@1@SGXQAV1@1@PAXQAVrTypeLibrary@TypeLibraries@RunTime@VIP@@@Z 
--- From 'Obj\collectionmsupport.64B31F2A.obj'
01:0001C254 collectionSupport\collectionSupport{@Type}?_initObject@@@QAGXQAV1@H@Z 
--- From 'Obj\collectionsupport.A87B70B8.obj'
01:0001C278 ?@create_object@collectionSupport@1@SGQAV1@1@PAXQAVrTypeLibrary@TypeLibraries@RunTime@VIP@@@Z 
--- From 'Obj\collectionmsupport.64B31F2A.obj'
01:0001C29C collectionSupport\collectionSupport{@Type}?_InternalFinalizer@@@QAGXQAV1@@Z 
--- From 'Obj\arraym_inline.0A13D119.obj'
01:0001C2B0 ?newAtomic@arrayM_inlineValue@@SAXQAV1@@PAXQAVrTypeLibrary@TypeLibraries@RunTime@VIP@@PBUpositive@@@Z  (Idle)
01:0001C2C4 ?newNonAtomic@arrayM_inlineValue@@SAXQAV1@@PAXQAVrTypeLibrary@TypeLibraries@RunTime@VIP@@PBUpositive@@@Z  (Idle)
01:0001C2D8 ?new@arrayM_inlineValue@@SAXQAV1@@PAXQAVrTypeLibrary@TypeLibraries@RunTime@VIP@@PBUpositive@@PAUboolean_struct@_builtIn@@@Z 
01:0001C31C ?newPointer@arrayM_inlineValue@@SAXQAV1@@PAXQAVrTypeLibrary@TypeLibraries@RunTime@VIP@@PAXPBUpositive@@@Z 
01:0001C354 ?new_list@arrayM_inlineValue@@SAXQAV1@@PAXQAVrTypeLibrary@TypeLibraries@RunTime@VIP@@PAU?$__packedList_struct@PAX@@PAUboolean_struct@_builtIn@@@Z  (Idle)
01:0001C3FC ?_tryGetElemPointer@arrayM_inlineValue@@SAXQAV1@@PAXPBUpositive@@PAPAX@Z  (Idle)
01:0001C45C ?_tryGet@arrayM_inlineValue@@SAXQAVmap@@@PAXPAXPAXPAPAX@Z 
01:0001C484 ?set@arrayM_inlineValue@@SAXQAVmapM@@@PAXPAXPAXPAX@Z 
01:0001C530 ?removeKey@arrayM_inlineValue@@SAXQAVmapM@@@PAXPAXPAX@Z 
01:0001C548 ?clear@arrayM_inlineValue@@SAXQAVmodifiable@@@PAX@Z 
01:0001C560 ?_getAll_nd@arrayM_inlineValue@@SAXQAVcollection@@@PAXPAPAX@Z 
01:0001C57C ?_upFrom_nd@arrayM_inlineValue@@SAXQAVmap@@@PAXPAXPAXPAPAUtuple_struct@core@@PAPAXPAPAX@Z 
01:0001C608 ?_downFrom_nd@arrayM_inlineValue@@SAXQAVmap@@@PAXPAXPAXPAPAUtuple_struct@core@@PAPAXPAPAX@Z 
01:0001C68C ?elemSize@arrayM_inlineValue@@SGPBUbyteCount@@QAV1@@PAX@Z 
01:0001C6AC ?_new@arrayM_inlineValue@@SAXQAVrTypeLibrary@TypeLibraries@RunTime@VIP@@PBUpositive@@PAUboolean_struct@_builtIn@@PAPAVarrayM_inline@@@PAPAX@Z  (Idle)
01:0001C6E0 ?_newAtomic@arrayM_inlineValue@@SAXQAVrTypeLibrary@TypeLibraries@RunTime@VIP@@PBUpositive@@PAPAVarrayM_inline@@@PAPAX@Z  (Idle)
01:0001C710 ?_newNonAtomic@arrayM_inlineValue@@SAXQAVrTypeLibrary@TypeLibraries@RunTime@VIP@@PBUpositive@@PAPAVarrayM_inline@@@PAPAX@Z  (Idle)
01:0001C740 ?_newPointer@arrayM_inlineValue@@SAXQAVrTypeLibrary@TypeLibraries@RunTime@VIP@@PAXPBUpositive@@PAPAVarrayM_inline@@@PAPAX@Z 
01:0001C774 ?_new_list@arrayM_inlineValue@@SAXQAVrTypeLibrary@TypeLibraries@RunTime@VIP@@PAU?$__packedList_struct@PAX@@PAUboolean_struct@_builtIn@@PAPAVarrayM_inline@@@PAPAX@Z  (Idle)
01:0001C7A8 ?_object_typelib_initializer@arrayM_inlineValue@@SGXQAV1@@PAXQAVrTypeLibrary@TypeLibraries@RunTime@VIP@@@Z 
01:0001C7C0 ?data@arrayM_inlineValue@@SGPAXQAVarrayM_inline@@@PAX@Z 
01:0001C7CC ?size@arrayM_inlineValue@@SGPBUpositive@@QAVarrayM_inline@@@PAX@Z 
01:0001C7D8 ?newAtomic@arrayM_inline@@SAXQAV1@@PAXQAVrTypeLibrary@TypeLibraries@RunTime@VIP@@PBUpositive@@@Z  (Idle)
01:0001C7EC ?newNonAtomic@arrayM_inline@@SAXQAV1@@PAXQAVrTypeLibrary@TypeLibraries@RunTime@VIP@@PBUpositive@@@Z  (Idle)
01:0001C800 ?new@arrayM_inline@@SAXQAV1@@PAXQAVrTypeLibrary@TypeLibraries@RunTime@VIP@@PBUpositive@@PAUboolean_struct@_builtIn@@@Z 
01:0001C850 ?newHead@arrayM_inline@@SAXQAV1@@PAXQAVrTypeLibrary@TypeLibraries@RunTime@VIP@@PAXPBUpositive@@PAUboolean_struct@_builtIn@@@Z  (Idle)
01:0001C85C ?newPointer@arrayM_inline@@SAXQAV1@@PAXQAVrTypeLibrary@TypeLibraries@RunTime@VIP@@PAXPBUpositive@@PAUboolean_struct@_builtIn@@@Z 
01:0001C89C ?new_list@arrayM_inline@@SAXQAV1@@PAXQAVrTypeLibrary@TypeLibraries@RunTime@VIP@@PAU?$__packedList_struct@PAX@@PAUboolean_struct@_builtIn@@@Z  (Idle)
01:0001C944 ?_tryGetElemPointer@arrayM_inline@@SAXQAV1@@PAXPBUpositive@@PAPAX@Z  (Idle)
01:0001C9A4 ?_tryGet@arrayM_inline@@SAXQAVmap@@@PAXPAXPAXPAPAX@Z 
01:0001CA08 ?set@arrayM_inline@@SAXQAVmapM@@@PAXPAXPAXPAX@Z 
01:0001CA9C ?removeKey@arrayM_inline@@SAXQAVmapM@@@PAXPAXPAX@Z 
01:0001CAB4 ?clear@arrayM_inline@@SAXQAVmodifiable@@@PAX@Z 
01:0001CACC ?_getAll_nd@arrayM_inline@@SAXQAVcollection@@@PAXPAPAX@Z 
01:0001CAE8 ?_upFrom_nd@arrayM_inline@@SAXQAVmap@@@PAXPAXPAXPAPAUtuple_struct@core@@PAPAXPAPAX@Z 
01:0001CB74 ?_downFrom_nd@arrayM_inline@@SAXQAVmap@@@PAXPAXPAXPAPAUtuple_struct@core@@PAPAXPAPAX@Z 
01:0001CBF8 ?elemSize@arrayM_inline@@SGPBUbyteCount@@QAV1@@PAX@Z 
01:0001CC18 ?_new@arrayM_inline@@SAXQAVrTypeLibrary@TypeLibraries@RunTime@VIP@@PBUpositive@@PAUboolean_struct@_builtIn@@PAPAV1@@PAPAX@Z  (Idle)
01:0001CC4C ?_newAtomic@arrayM_inline@@SAXQAVrTypeLibrary@TypeLibraries@RunTime@VIP@@PBUpositive@@PAPAV1@@PAPAX@Z  (Idle)
01:0001CC7C ?_newNonAtomic@arrayM_inline@@SAXQAVrTypeLibrary@TypeLibraries@RunTime@VIP@@PBUpositive@@PAPAV1@@PAPAX@Z  (Idle)
01:0001CCAC ?_newHead@arrayM_inline@@SAXQAVrTypeLibrary@TypeLibraries@RunTime@VIP@@PAXPBUpositive@@PAUboolean_struct@_builtIn@@PAPAV1@@PAPAX@Z  (Idle)
01:0001CCE0 ?_newPointer@arrayM_inline@@SAXQAVrTypeLibrary@TypeLibraries@RunTime@VIP@@PAXPBUpositive@@PAUboolean_struct@_builtIn@@PAPAV1@@PAPAX@Z  (Idle)
01:0001CD14 ?_new_list@arrayM_inline@@SAXQAVrTypeLibrary@TypeLibraries@RunTime@VIP@@PAU?$__packedList_struct@PAX@@PAUboolean_struct@_builtIn@@PAPAV1@@PAPAX@Z  (Idle)
01:0001CD48 ?_object_typelib_initializer@arrayM_inline@@SGXQAV1@@PAXQAVrTypeLibrary@TypeLibraries@RunTime@VIP@@@Z 
01:0001CD60 ?data@arrayM_inline@@SGPAXQAV1@@PAX@Z 
01:0001CD6C ?size@arrayM_inline@@SGPBUpositive@@QAV1@@PAX@Z 
01:0001D13C arrayM_inlineValue{@ItemType}?_initObject@@@QAGXQAV1@H@Z 
01:0001D17C ?@create_object@arrayM_inlineValue@@SGQAV1@@PAXQAVrTypeLibrary@TypeLibraries@RunTime@VIP@@@Z 
01:0001D1A0 arrayM_inlineValue{@ItemType}?_InternalFinalizer@@@QAGXQAV1@@Z 
01:0001D574 arrayM_inline{@ItemType}?_initObject@@@QAGXQAV1@H@Z 
01:0001D5B4 ?@create_object@arrayM_inline@@SGQAV1@@PAXQAVrTypeLibrary@TypeLibraries@RunTime@VIP@@@Z 
01:0001D5D8 arrayM_inline{@ItemType}?_InternalFinalizer@@@QAGXQAV1@@Z 
--- From 'Obj\mapm_redblack.88A5A755.obj'
01:0001D5F0 ?new@mapM_redBlack@@SAXQAV1@@PAXPAXQAVrTypeLibrary@TypeLibraries@RunTime@VIP@@1@Z  (Idle)
01:0001D638 ?newCustom@mapM_redBlack@@SAXQAV1@@PAXPAXQAVrTypeLibrary@TypeLibraries@RunTime@VIP@@1X@Z  (Idle)
01:0001D674 ?set@mapM_redBlack@@SAXQAVmapM@@@PAXPAXPAXPAX@Z 
01:0001D6B8 ?_tryGet@mapM_redBlack@@SAXQAVmap@@@PAXPAXPAXPAPAX@Z 
01:0001D700 ?_getAll_nd@mapM_redBlack@@SAXQAVcollection@@@PAXPAPAX@Z 
01:0001D740 ?removeKey@mapM_redBlack@@SAXQAVmapM@@@PAXPAXPAX@Z 
01:0001D798 ?clear@mapM_redBlack@@SAXQAVmodifiable@@@PAX@Z 
01:0001D7D4 ?_upFrom_nd@mapM_redBlack@@SAXQAVmap@@@PAXPAXPAXPAPAUtuple_struct@core@@PAPAXPAPAX@Z 
01:0001D81C ?_downFrom_nd@mapM_redBlack@@SAXQAVmap@@@PAXPAXPAXPAPAUtuple_struct@core@@PAPAXPAPAX@Z 
--- From 'Obj\list.50589F40.obj'
01:0001D864 ?_new@mapM_redBlack@@SAXQAVrTypeLibrary@TypeLibraries@RunTime@VIP@@0PAPAVmapM@@@PAPAXPAPAX@Z 
--- From 'Obj\mapm_redblack.88A5A755.obj'
01:0001D898 ?_newCustom@mapM_redBlack@@SAXQAVrTypeLibrary@TypeLibraries@RunTime@VIP@@0XPAPAVmapM@@@PAPAXPAPAX@Z  (Idle)
01:0001D8CC ?_object_typelib_initializer@mapM_redBlack@@SGXQAV1@@PAXPAXQAVrTypeLibrary@TypeLibraries@RunTime@VIP@@1@Z 
01:0001DC9C mapM_redBlack{@Key,@Data}?_initObject@@@QAGXQAV1@H@Z 
01:0001DCE0 ?@create_object@mapM_redBlack@@SGQAV1@@PAXPAXQAVrTypeLibrary@TypeLibraries@RunTime@VIP@@0@Z 
01:0001DD08 mapM_redBlack{@Key,@Data}?_InternalFinalizer@@@QAGXQAV1@@Z 
--- From 'Obj\setm_redblack.5372EEBC.obj'
01:0001DD20 ?new@setM_redBlack@@SAXQAV1@@PAXQAVrTypeLibrary@TypeLibraries@RunTime@VIP@@@Z  (Idle)
01:0001DD48 ?new@setM_redBlack@@SAXQAV1@@PAXQAVrTypeLibrary@TypeLibraries@RunTime@VIP@@PAU?$__packedList_struct@PAX@@@Z  (Idle)
01:0001DD68 ?newSingleton@setM_redBlack@@SAXQAV1@@PAXQAVrTypeLibrary@TypeLibraries@RunTime@VIP@@PAX@Z  (Idle)
01:0001DD88 ?newCustom@setM_redBlack@@SAXQAV1@@PAXQAVrTypeLibrary@TypeLibraries@RunTime@VIP@@X@Z  (Idle)
01:0001DDB0 ?newInternal@setM_redBlack@@SAXQAV1@@PAXQAVrTypeLibrary@TypeLibraries@RunTime@VIP@@PAUset_struct@redBlackSet@@PAX@Z 
01:0001DDCC ?contains@setM_redBlack@@SAXQAVcollection@@@PAXPAX@Z 
01:0001DDFC ?_getAll_nd@setM_redBlack@@SAXQAVcollection@@@PAXPAPAX@Z 
01:0001DE2C ?insert@setM_redBlack@@SAXQAVmodifiable@@@PAXPAX@Z 
01:0001DE64 ?remove@setM_redBlack@@SAXQAVmodifiable@@@PAXPAX@Z 
01:0001DE9C ?clear@setM_redBlack@@SAXQAVmodifiable@@@PAX@Z 
01:0001DED0 ?_upFrom_nd@setM_redBlack@@SAXQAVset@@@PAXPAXPAPAX@Z 
01:0001DF0C ?_downFrom_nd@setM_redBlack@@SAXQAVset@@@PAXPAXPAPAX@Z 
--- From 'Obj\list.50589F40.obj'
01:0001DF48 ?_new@setM_redBlack@@SAXQAVrTypeLibrary@TypeLibraries@RunTime@VIP@@PAPAVsetM@@@PAPAX@Z 
--- From 'Obj\setm_redblack.5372EEBC.obj'
01:0001DF74 ?_new@setM_redBlack@@SAXQAVrTypeLibrary@TypeLibraries@RunTime@VIP@@PAU?$__packedList_struct@PAX@@PAPAVsetM@@@PAPAX@Z  (Idle)
01:0001DFA4 ?_newSingleton@setM_redBlack@@SAXQAVrTypeLibrary@TypeLibraries@RunTime@VIP@@PAXPAPAVsetM@@@PAPAX@Z  (Idle)
--- From 'Obj\list.50589F40.obj'
01:0001DFD4 ?_newCustom@setM_redBlack@@SAXQAVrTypeLibrary@TypeLibraries@RunTime@VIP@@XPAPAVsetM@@@PAPAX@Z 
--- From 'Obj\setm_redblack.5372EEBC.obj'
01:0001E004 ?_object_typelib_initializer@setM_redBlack@@SGXQAV1@@PAXQAVrTypeLibrary@TypeLibraries@RunTime@VIP@@@Z 
01:0001E20C setM_redBlack{@Type}?_initObject@@@QAGXQAV1@H@Z 
01:0001E248 ?@create_object@setM_redBlack@@SGQAV1@@PAXQAVrTypeLibrary@TypeLibraries@RunTime@VIP@@@Z 
01:0001E26C setM_redBlack{@Type}?_InternalFinalizer@@@QAGXQAV1@@Z 
--- From 'Obj\mapmsupport.A422FE9A.obj'
01:0001E280 ?new@collectionMsupport@collectionSupportM@@SAXQAV1@2@PAXQAVrTypeLibrary@TypeLibraries@RunTime@VIP@@QAVcollectionMsite@@2@PAX@Z 
--- From 'Obj\collectionmsupport.64B31F2A.obj'
01:0001E2B8 ?insertList@collectionMsupport@collectionSupportM@@SAXQAV1@2@PAXPAU?$__packedList_struct@PAX@@@Z 
01:0001E300 ?insertCollection@collectionMsupport@collectionSupportM@@SAXQAV1@2@PAXQAVcollection@@@PAX@Z 
01:0001E348 ?insertEnumerator@collectionMsupport@collectionSupportM@@SAXQAV1@2@PAXX@Z 
01:0001E398 ?removeList@collectionMsupport@collectionSupportM@@SAXQAV1@2@PAXPAU?$__packedList_struct@PAX@@@Z 
01:0001E3E0 ?removeCollection@collectionMsupport@collectionSupportM@@SAXQAV1@2@PAXQAVcollection@@@PAX@Z 
01:0001E428 ?_tryRemoveFirst@collectionMsupport@collectionSupportM@@SAXQAV1@2@PAXPAPAX@Z 
01:0001E45C ?_new@collectionMsupport@collectionSupportM@@SAXQAVrTypeLibrary@TypeLibraries@RunTime@VIP@@QAVcollectionMsite@@2@PAXPAPAV1@2@PAPAX@Z  (Idle)
01:0001E490 ?_object_typelib_initializer@collectionMsupport@collectionSupportM@@SGXQAV1@2@PAXQAVrTypeLibrary@TypeLibraries@RunTime@VIP@@@Z 
--- From 'Obj\mapmsupport.A422FE9A.obj'
01:0001E500 collectionSupportM\collectionMsupport{@Type}?_initObject@@@QAGXQAV1@H@Z 
--- From 'Obj\collectionmsupport.64B31F2A.obj'
01:0001E540 ?@create_object@collectionMsupport@collectionSupportM@@SGQAV1@2@PAXQAVrTypeLibrary@TypeLibraries@RunTime@VIP@@@Z 
--- From 'Obj\mapmsupport.A422FE9A.obj'
01:0001E564 collectionSupportM\collectionMsupport{@Type}?_InternalFinalizer@@@QAGXQAV1@@Z 
01:0001E580 ?new@mapMSupport@collectionSupportM@@SAXQAV1@2@PAXPAXQAVrTypeLibrary@TypeLibraries@RunTime@VIP@@1QAVmapMSite@@2@PAXPAX@Z 
01:0001E5D4 ?_get@mapMSupport@collectionSupportM@@SAXQAV1@@PAXPAXPAXPAPAX@Z 
01:0001E64C ?_get_default@mapMSupport@collectionSupportM@@SAXQAV1@@PAXPAXPAXPAXPAPAX@Z 
01:0001E690 ?_get_defaultLazy@mapMSupport@collectionSupportM@@SAXQAV1@@PAXPAXPAXXPAPAX@Z 
01:0001E6E8 ?_get_optional@mapMSupport@collectionSupportM@@SAXQAV1@@PAXPAXPAXPAPAUoptional_struct@core@@PAPAX@Z 
01:0001E748 ?contains@mapMSupport@collectionSupportM@@SAXQAV1@@PAXPAXPAUtuple_struct@core@@PAXPAX@Z 
01:0001E790 ?_getKey_nd@mapMSupport@collectionSupportM@@SAXQAV1@@PAXPAXPAPAX@Z 
01:0001E7C0 ?_getValue_nd@mapMSupport@collectionSupportM@@SAXQAV1@@PAXPAXPAPAX@Z 
01:0001E7F4 ?keyList@mapMSupport@collectionSupportM@@SGPAU?$__packedList_struct@PAX@@QAV1@@PAXPAX@Z 
01:0001E858 ?valueList@mapMSupport@collectionSupportM@@SGPAU?$__packedList_struct@PAX@@QAV1@@PAXPAX@Z 
01:0001E8BC ?insert@mapMSupport@collectionSupportM@@SAXQAV1@@PAXPAXPAUtuple_struct@core@@PAXPAX@Z 
01:0001E8F8 ?set_optional@mapMSupport@collectionSupportM@@SAXQAV1@@PAXPAXPAXPAUoptional_struct@core@@PAX@Z 
01:0001E940 ?remove@mapMSupport@collectionSupportM@@SAXQAV1@@PAXPAXPAUtuple_struct@core@@PAXPAX@Z 
01:0001E9EC ?removeKeyList@mapMSupport@collectionSupportM@@SAXQAV1@@PAXPAXPAU?$__packedList_struct@PAX@@@Z 
01:0001EA34 ?removeKeyCollection@mapMSupport@collectionSupportM@@SAXQAV1@@PAXPAXQAVcollection@@@PAX@Z 
01:0001EA7C ?_new@mapMSupport@collectionSupportM@@SAXQAVrTypeLibrary@TypeLibraries@RunTime@VIP@@0QAVmapMSite@@2@PAXPAXPAPAV1@@PAPAXPAPAX@Z  (Idle)
01:0001EAB8 ?_object_typelib_initializer@mapMSupport@collectionSupportM@@SGXQAV1@2@PAXPAXQAVrTypeLibrary@TypeLibraries@RunTime@VIP@@1@Z 
01:0001EAD4 ?_mk_tl_0_collectionSupportM\collectionMsupport{@Type}$imp$@mapMSupport@collectionSupportM@@SGQAVrTypeLibrary@TypeLibraries@RunTime@VIP@@QAV1@2@PAXPAX@Z 
01:0001EB18 ?_getAll_nd@mapMSupport@collectionSupportM@@SAXQAVcollectionSite@@collectionSupport@@PAXPAPAX@Z 
01:0001EC00 collectionSupportM\mapMSupport{@Key,@Data}?_initObject@@@QAGXQAV1@H@Z 
01:0001EC54 ?@create_object@mapMSupport@collectionSupportM@@SGQAV1@2@PAXPAXQAVrTypeLibrary@TypeLibraries@RunTime@VIP@@0@Z 
01:0001EC7C collectionSupportM\mapMSupport{@Key,@Data}?_InternalFinalizer@@@QAGXQAV1@@Z 
--- From 'Obj\console.93C0DBD8.obj'
01:0001EC90 ?handle@outputStream_console@@SGPBU0@QAV1@@@Z 
01:0001ECD4 ?newCurrent@outputStream_console@@SAXQAV1@@I@Z  (Idle)
01:0001ED30 ?new@outputStream_console@@SAXQAV1@@I@Z 
01:0001EDA0 ?write@outputStream_console@@SAXQAVoutputStream@@@@Z 
01:0001EDF8 ?writeQuoted@outputStream_console@@SAXQAVoutputStream@@@@Z 
01:0001EE50 ?writef@outputStream_console@@SAXQAVoutputStream@@@PB_W@Z 
01:0001EEAC ?nl@outputStream_console@@SAXQAVoutputStream@@@@Z 
01:0001EEE0 ?save@outputStream_console@@SAXQAVoutputStream@@@PBUfactDB@@@Z 
01:0001EF38 ?writeBytes@outputStream_console@@SAXQAVoutputStream@@@PAXPBUbyteCount@@@Z 
01:0001EF94 ?errorHandler@outputStream_console@@SAXQAV1@@PBUtraceId@exception@@@Z 
01:0001EFD0 ?getCRLFconversion@outputStream_console@@SGPAUboolean_struct@_builtIn@@QAVstream@@@@Z 
01:0001F000 ?setCRLFconversion@outputStream_console@@SGXQAVstream@@@PAUboolean_struct@_builtIn@@@Z 
01:0001F054 ?bufferFullCB@outputStream_console@@SAXQAV1@@PAPAXAAUbyteCount@@@Z  (Idle)
01:0001F0D4 ?convertLF2CRLF_ifNeeded@outputStream_console@@SAXQAV1@@PAXPBUbyteCount@@PAPAXAAU3@@Z 
01:0001F130 ?writeToStdDevice@outputStream_console@@SAXPAUmode_struct@stream@@PBUfileHandle@@PAXPBUbyteCount@@@Z 
01:0001F1C4 ?convert_ifAnsi@outputStream_console@@SAXPAUmode_struct@stream@@PAXPBUbyteCount@@PAPAXAAU4@@Z 
01:0001F27C ?setPosition@outputStream_console@@SGXQAVstream@@@PBUfileSize@fileSystem_api@@@Z 
01:0001F28C ?getPosition@outputStream_console@@SGPBUfileSize@fileSystem_api@@QAVstream@@@@Z 
01:0001F2A4 ?close@outputStream_console@@SGXQAVstream@@@@Z 
01:0001F2B4 ?getBuffer@outputStream_console@@SGXQAVbufferSupport@@@PAPAXAAUbyteCount@@@Z 
01:0001F2D8 ?getBufferLocked@outputStream_console@@SGXQAVbufferSupport@@@PAPAXAAUbyteCount@@@Z 
01:0001F2F4 ?_new@outputStream_console@@SAXIPAPAVoutputStream@@@@Z  (Idle)
01:0001F31C ?_newCurrent@outputStream_console@@SAXIPAPAVoutputStream@@@@Z  (Idle)
01:0001F344 ?_object_facts_initializer@outputStream_console@@SGXQAV1@@@Z 
01:0001F35C ?new@inputStream_console@@SAXQAV1@@@Z  (Idle)
01:0001F3E0 ?getCRLFconversion@inputStream_console@@SGPAUboolean_struct@_builtIn@@QAVstream@@@@Z 
01:0001F410 ?setCRLFconversion@inputStream_console@@SGXQAVstream@@@PAUboolean_struct@_builtIn@@@Z 
01:0001F464 ?setMode@inputStream_console@@SGXQAVstream@@@PAUmode_struct@2@@Z 
01:0001F510 ?exTextBufferCB@inputStream_console@@SAXQAV1@@PAPAXAAUbyteCount@@@Z  (Idle)
01:0001F56C ?exTextBufferCBLock@inputStream_console@@SAXQAV1@@PAPAXAAUbyteCount@@@Z  (Idle)
01:0001F5C0 ?handlingBufferLastChar@inputStream_console@@SAXQAV1@@PBUbyteCount@@PAPAXAAU3@@Z  (Idle)
01:0001F604 ?converCRLF2LF_ifNeeded@inputStream_console@@SAXQAV1@@PBUbyteCount@@PAPAXAAU3@@Z 
01:0001F684 ?_readFromStdIn@inputStream_console@@SAXQAV1@@PAUmode_struct@stream@@PBUfileHandle@@AAUbyteCount@@@Z 
01:0001F7A4 ?_readFromFile@inputStream_console@@SAXPBUfileHandle@@PAXPBUbyteCount@@AAU3@@Z 
01:0001F7F4 ?setPosition@inputStream_console@@SGXQAVstream@@@PBUfileSize@fileSystem_api@@@Z 
01:0001F804 ?getPosition@inputStream_console@@SGPBUfileSize@fileSystem_api@@QAVstream@@@@Z 
01:0001F81C ?close@inputStream_console@@SGXQAVstream@@@@Z 
01:0001F850 ?getBuffer@inputStream_console@@SGXQAVbufferSupport@@@PAPAXAAUbyteCount@@@Z 
01:0001F874 ?getBufferLocked@inputStream_console@@SGXQAVbufferSupport@@@PAPAXAAUbyteCount@@@Z 
01:0001F898 ?_new@inputStream_console@@SAXPAPAVinputStream@@@@Z  (Idle)
01:0001F8C0 ?_object_facts_initializer@inputStream_console@@SGXQAV1@@@Z 
01:0001F8E0 ?_readChar@console@@SAXPA_W@Z  (Idle)
01:0001F914 ?_readLine@console@@SAXPAPB_W@Z  (Idle)
01:0001F948 ?_read@console@@SAXQAVrTypeLibrary@TypeLibraries@RunTime@VIP@@PAPAX@Z  (Idle)
01:0001F988 ?write@console@@SAXXZ 
01:0001F9BC ?writef@console@@SAXPB_W@Z  (Idle)
01:0001F9FC ?nl@console@@SAXXZ 
01:0001FA24 ?isModeLine@console@@SAXXZ  (Idle)
01:0001FA50 ?setModeLine@console@@SAXPAUboolean_struct@_builtIn@@@Z  (Idle)
01:0001FA90 ?isModeEcho@console@@SAXXZ  (Idle)
01:0001FABC ?setModeEcho@console@@SAXPAUboolean_struct@_builtIn@@@Z  (Idle)
01:0001FAFC ?isModeProcessed@console@@SAXXZ  (Idle)
01:0001FB48 ?setModeProcessed@console@@SAXPAUboolean_struct@_builtIn@@@Z  (Idle)
01:0001FB9C ?isModeWrap@console@@SAXXZ  (Idle)
01:0001FBC8 ?setModeWrap@console@@SAXPAUboolean_struct@_builtIn@@@Z  (Idle)
01:0001FBF8 ?checkConsoleMode@console@@SAXPBUfileHandle@@I@Z 
01:0001FC34 ?setConsoleMode@console@@SAXPAUboolean_struct@_builtIn@@PBUfileHandle@@I@Z 
01:0001FC9C ?_toApiMode@console@@SAXPAUboolean_struct@_builtIn@@IIPAI@Z 
01:0001FCE4 ?clearInput@console@@SAXXZ  (Idle)
01:0001FD48 ?clearOutput@console@@SAXXZ  (Idle)
01:0001FE08 ?_getLocation@console@@SAXPAPAUcoord_struct@console_native@@@Z  (Idle)
01:0001FE30 ?setLocation@console@@SAXPAUcoord_struct@console_native@@@Z 
01:0001FE84 ?_getConsoleInputStream@console@@SAXPAPAVinputStream@@@@Z 
01:0001FEF4 ?_getConsoleOutputStream@console@@SAXPAPAVoutputStream@@@@Z 
01:0001FF68 ?_getErrorStream@console@@SAXPAPAVoutputStream@@@@Z  (Idle)
01:0001FFDC ?close@console@@SAXXZ  (Idle)
01:00020014 ?_getConsoleWidth@console@@SAXAAUunsigned16@@@Z  (Idle)
01:00020038 ?_getConsoleTitle@console@@SAXPAPB_W@Z  (Idle)
01:000200A4 ?setConsoleTitle@console@@SAXPB_W@Z  (Idle)
01:000200E0 ?_getConsoleMode@console@@SAXPBUfileHandle@@PAI@Z 
01:00020120 ?_getConsoleScreenBufferInfo@console@@SAXPAPAUconsoleScreenBufferInfo_struct@console_native@@@Z 
01:00020190 ?setTextAttribute@console@@SAXI@Z  (Idle)
01:000201A4 ?setTextAttribute@console@@SAXII@Z 
01:000201D4 ?_getTextAttribute@console@@SAXPAI@Z  (Idle)
01:0002022C ?init@console@@SAXPAUmode_struct@stream@@@Z  (Idle)
01:00020290 ?init@console@@SAXXZ 
01:000202A0 ?init8@console@@SAXXZ  (Idle)
01:000202B4 ?init8@console@@SAXPBUcodePage@@@Z 
01:000202DC ?initUtf8@console@@SAXXZ  (Idle)
01:000202EC ?run@console@@SAXX@Z  (Idle)
01:00020300 ?run@console@@SAXXPAUmode_struct@stream@@@Z 
01:00020314 ?anonymous$c0$1$run/3np$console@1@SAXPAUanonymous$c0$1$run/3np$consolec_struct@1@@Z 
01:00020340 ?run@console@@SAXXPAUmode_struct@stream@@PAUrunMode_struct@exe_api@@@Z 
01:00020384 ?run8@console@@SAXX@Z  (Idle)
01:00020398 ?run8@console@@SAXXPBUcodePage@@@Z 
01:000203C0 ?runUtf8@console@@SAXX@Z  (Idle)
01:000203D4 ?runInner@console@@SAXXPAUmode_struct@stream@@@Z 
01:00020470 ?codePage@console@@SGXPBU0@@Z  (Idle)
01:0002049C ?mode@console@@SGXPAUmode_struct@stream@@@Z 
01:00020540 ?checkConsolePresence@console@@SAXXZ 
01:00020598 ?_readEvents@console@@SAXPAPAU?$__packedList_struct@Uevent@@@@@Z  (Idle)
01:00020758 ?_makeEvent@console@@SAXIPAXPAPAUevent_struct@1@@Z  (Idle)
01:00020AF0 ?_getEventQueue@console@@SAXPAPAU?$__packedList_struct@Uevent@@@@@Z  (Idle)
01:00020C28 ?_getEvent_nd@console@@SAXPAXIIPAPAUevent_struct@1@@Z 
01:00020F00 outputStream_console?_initObject@@@QAGXQAV1@H@Z 
01:00020F34 ?@create_object@outputStream_console@@SGQAV1@@XZ 
01:00020F50 outputStream_console?_InternalFinalizer@@@QAGXQAV1@@Z 
01:000211EC inputStream_console?_initObject@@@QAGXQAV1@H@Z 
01:00021220 ?@create_object@inputStream_console@@SGQAV1@@XZ 
01:0002123C inputStream_console?_InternalFinalizer@@@QAGXQAV1@@Z 
--- From 'Obj\core.9A8E3854.obj'
01:00021250 ?_mapSome@core@@SAXQAVrTypeLibrary@TypeLibraries@RunTime@VIP@@0PAUoptional_struct@1@PAXXPAPAU21@PAPAX@Z  (Idle)
01:000212A8 ?_tryGetSome@core@@SAXQAVrTypeLibrary@TypeLibraries@RunTime@VIP@@PAUoptional_struct@1@PAXPAPAX@Z  (Idle)
--- From 'Obj\outputstreamsupport.DD5669F3.obj'
01:000212DC ?_getSome@core@@SAXQAVrTypeLibrary@TypeLibraries@RunTime@VIP@@PAUoptional_struct@1@PAXPAXPAPAX@Z 
--- From 'Obj\core.9A8E3854.obj'
01:00021300 ?_makeOptional@core@@SAXQAVrTypeLibrary@TypeLibraries@RunTime@VIP@@XPAPAUoptional_struct@1@PAPAX@Z  (Idle)
--- From 'Obj\filesystem.AD950C87.obj'
01:00021374 ?_toUnsigned64@core@@SAXPAUunsigned64_struct_struct@1@PAPA_K@Z 
01:00021380 ?_fromUnsigned64@core@@SAXPA_KPAPAUunsigned64_struct_struct@1@@Z 
01:00021390 ?_toInteger64@core@@SAXPAUinteger64_struct_struct@1@PAPA_J@Z 
--- From 'Obj\core.9A8E3854.obj'
01:0002139C ?_fromInteger64@core@@SAXPA_JPAPAUinteger64_struct_struct@1@@Z 
--- From 'Obj\exceptiondump.364682AD.obj'
01:000213AC ?_value2String@core@@SAXPAUvalue_struct@1@PAPB_W@Z 
--- From 'Obj\core.9A8E3854.obj'
01:00021628 ?nothing@core@@SAXXZ  (Idle)
--- From 'Obj\event.5052287E.obj'
01:00021630 ?new@event7@@SAXQAV1@@PAXPAXPAXPAXPAXPAXPAXPAXQAVrTypeLibrary@TypeLibraries@RunTime@VIP@@1111111PAX@Z  (Idle)
01:00021644 ?addListener@event7@@SAXQAV1@@PAXPAXPAXPAXPAXPAXPAXPAXX@Z 
01:0002166C ?anonymous$o0$1$addlistener/2np$event7{@Source,@Type1,@Type2,@Type3,@Type4,@Type5,@Type6,@Type7}@event7@@SAXPAUanonymous$o0$1$addlistener/2np$event7{@Source,@Type1,@Type2,@Type3,@Type4,@Type5,@Type6,@Type7}c_struct@1/8@PAX@Z 
01:00021690 ?addListener@event7@@SAXQAV1@@PAXPAXPAXPAXPAXPAXPAXPAXQAVrTypeLibrary@TypeLibraries@RunTime@VIP@@XQAVevent0@@@PAX@Z 
01:00021720 ?removeListener@event7@@SAXQAV1@@PAXPAXPAXPAXPAXPAXPAXPAXX@Z 
01:000217C0 ?removeAllListeners@event7@@SAXQAV1@@PAXPAXPAXPAXPAXPAXPAXPAX@Z 
01:000217FC ?hasListeners@event7@@SAXQAV1@@PAXPAXPAXPAXPAXPAXPAXPAX@Z 
01:0002181C ?notify@event7@@SAXQAV1@@PAXPAXPAXPAXPAXPAXPAXPAXPAXPAXPAXPAXPAXPAXPAX@Z 
01:000218AC ?_new@event7@@SAXQAVrTypeLibrary@TypeLibraries@RunTime@VIP@@0000000PAXPAPAV1@@PAPAXPAPAXPAPAXPAPAXPAPAXPAPAXPAPAXPAPAX@Z  (Idle)
01:00021904 ?_object_typelib_initializer@event7@@SGXQAV1@@PAXPAXPAXPAXPAXPAXPAXPAXQAVrTypeLibrary@TypeLibraries@RunTime@VIP@@1111111@Z 
01:00021944 ?anonymous$o1$1$addlistener/2np$event7{@Source,@Type1,@Type2,@Type3,@Type4,@Type5,@Type6,@Type7}@event7@@SAXPAUanonymous$o1$1$addlistener/2np$event7{@Source,@Type1,@Type2,@Type3,@Type4,@Type5,@Type6,@Type7}c_struct@1/8@PAXPAX@Z 
01:00021968 ?addListener@event7@@SAXQAV1@@PAXPAXPAXPAXPAXPAXPAXPAXQAVrTypeLibrary@TypeLibraries@RunTime@VIP@@1XQAVevent1@@@PAXPAX@Z 
01:00021A00 ?anonymous$o2$1$addlistener/2np$event7{@Source,@Type1,@Type2,@Type3,@Type4,@Type5,@Type6,@Type7}@event7@@SAXPAUanonymous$o2$1$addlistener/2np$event7{@Source,@Type1,@Type2,@Type3,@Type4,@Type5,@Type6,@Type7}c_struct@1/8@PAXPAXPAX@Z 
01:00021A24 ?addListener@event7@@SAXQAV1@@PAXPAXPAXPAXPAXPAXPAXPAXQAVrTypeLibrary@TypeLibraries@RunTime@VIP@@11XQAVevent2@@@PAXPAXPAX@Z 
01:00021AC4 ?anonymous$o3$1$addlistener/2np$event7{@Source,@Type1,@Type2,@Type3,@Type4,@Type5,@Type6,@Type7}@event7@@SAXPAUanonymous$o3$1$addlistener/2np$event7{@Source,@Type1,@Type2,@Type3,@Type4,@Type5,@Type6,@Type7}c_struct@1/8@PAXPAXPAXPAX@Z 
01:00021AE8 ?addListener@event7@@SAXQAV1@@PAXPAXPAXPAXPAXPAXPAXPAXQAVrTypeLibrary@TypeLibraries@RunTime@VIP@@111XQAVevent3@@@PAXPAXPAXPAX@Z 
01:00021B8C ?anonymous$o4$1$addlistener/2np$event7{@Source,@Type1,@Type2,@Type3,@Type4,@Type5,@Type6,@Type7}@event7@@SAXPAUanonymous$o4$1$addlistener/2np$event7{@Source,@Type1,@Type2,@Type3,@Type4,@Type5,@Type6,@Type7}c_struct@1/8@PAXPAXPAXPAXPAX@Z 
01:00021BB0 ?addListener@event7@@SAXQAV1@@PAXPAXPAXPAXPAXPAXPAXPAXQAVrTypeLibrary@TypeLibraries@RunTime@VIP@@1111XQAVevent4@@@PAXPAXPAXPAXPAX@Z 
01:00021C5C ?anonymous$o5$1$addlistener/2np$event7{@Source,@Type1,@Type2,@Type3,@Type4,@Type5,@Type6,@Type7}@event7@@SAXPAUanonymous$o5$1$addlistener/2np$event7{@Source,@Type1,@Type2,@Type3,@Type4,@Type5,@Type6,@Type7}c_struct@1/8@PAXPAXPAXPAXPAXPAX@Z 
01:00021C80 ?addListener@event7@@SAXQAV1@@PAXPAXPAXPAXPAXPAXPAXPAXQAVrTypeLibrary@TypeLibraries@RunTime@VIP@@11111XQAVevent5@@@PAXPAXPAXPAXPAXPAX@Z 
01:00021D30 ?anonymous$o6$1$addlistener/2np$event7{@Source,@Type1,@Type2,@Type3,@Type4,@Type5,@Type6,@Type7}@event7@@SAXPAUanonymous$o6$1$addlistener/2np$event7{@Source,@Type1,@Type2,@Type3,@Type4,@Type5,@Type6,@Type7}c_struct@1/8@PAXPAXPAXPAXPAXPAXPAX@Z 
01:00021D54 ?addListener@event7@@SAXQAV1@@PAXPAXPAXPAXPAXPAXPAXPAXQAVrTypeLibrary@TypeLibraries@RunTime@VIP@@111111XQAVevent6@@@PAXPAXPAXPAXPAXPAXPAX@Z 
01:00021E0C ?anonymous$o7$1$addlistener/2np$event7{@Source,@Type1,@Type2,@Type3,@Type4,@Type5,@Type6,@Type7}@event7@@SAXPAUanonymous$o7$1$addlistener/2np$event7{@Source,@Type1,@Type2,@Type3,@Type4,@Type5,@Type6,@Type7}c_struct@1/8@PAXPAXPAXPAXPAXPAXPAXPAX@Z 
01:00021E30 ?addListener@event7@@SAXQAV1@@PAXPAXPAXPAXPAXPAXPAXPAXQAVrTypeLibrary@TypeLibraries@RunTime@VIP@@1111111X0@Z 
01:00021EEC ?new@event6@@SAXQAV1@@PAXPAXPAXPAXPAXPAXPAXQAVrTypeLibrary@TypeLibraries@RunTime@VIP@@111111PAX@Z  (Idle)
01:00021F00 ?addListener@event6@@SAXQAV1@@PAXPAXPAXPAXPAXPAXPAXX@Z 
01:00021F28 ?anonymous$o0$1$addlistener/2np$event6{@Source,@Type1,@Type2,@Type3,@Type4,@Type5,@Type6}@event6@@SAXPAUanonymous$o0$1$addlistener/2np$event6{@Source,@Type1,@Type2,@Type3,@Type4,@Type5,@Type6}c_struct@1/7@PAX@Z 
01:00021F4C ?addListener@event6@@SAXQAV1@@PAXPAXPAXPAXPAXPAXPAXQAVrTypeLibrary@TypeLibraries@RunTime@VIP@@XQAVevent0@@@PAX@Z 
01:00021FD8 ?removeListener@event6@@SAXQAV1@@PAXPAXPAXPAXPAXPAXPAXX@Z 
01:00022078 ?removeAllListeners@event6@@SAXQAV1@@PAXPAXPAXPAXPAXPAXPAX@Z 
01:000220B4 ?hasListeners@event6@@SAXQAV1@@PAXPAXPAXPAXPAXPAXPAX@Z 
01:000220D4 ?notify@event6@@SAXQAV1@@PAXPAXPAXPAXPAXPAXPAXPAXPAXPAXPAXPAXPAX@Z 
01:00022160 ?_new@event6@@SAXQAVrTypeLibrary@TypeLibraries@RunTime@VIP@@000000PAXPAPAV1@@PAPAXPAPAXPAPAXPAPAXPAPAXPAPAXPAPAX@Z  (Idle)
01:000221B4 ?_object_typelib_initializer@event6@@SGXQAV1@@PAXPAXPAXPAXPAXPAXPAXQAVrTypeLibrary@TypeLibraries@RunTime@VIP@@111111@Z 
01:000221F0 ?anonymous$o1$1$addlistener/2np$event6{@Source,@Type1,@Type2,@Type3,@Type4,@Type5,@Type6}@event6@@SAXPAUanonymous$o1$1$addlistener/2np$event6{@Source,@Type1,@Type2,@Type3,@Type4,@Type5,@Type6}c_struct@1/7@PAXPAX@Z 
01:00022214 ?addListener@event6@@SAXQAV1@@PAXPAXPAXPAXPAXPAXPAXQAVrTypeLibrary@TypeLibraries@RunTime@VIP@@1XQAVevent1@@@PAXPAX@Z 
01:000222A8 ?anonymous$o2$1$addlistener/2np$event6{@Source,@Type1,@Type2,@Type3,@Type4,@Type5,@Type6}@event6@@SAXPAUanonymous$o2$1$addlistener/2np$event6{@Source,@Type1,@Type2,@Type3,@Type4,@Type5,@Type6}c_struct@1/7@PAXPAXPAX@Z 
01:000222CC ?addListener@event6@@SAXQAV1@@PAXPAXPAXPAXPAXPAXPAXQAVrTypeLibrary@TypeLibraries@RunTime@VIP@@11XQAVevent2@@@PAXPAXPAX@Z 
01:00022364 ?anonymous$o3$1$addlistener/2np$event6{@Source,@Type1,@Type2,@Type3,@Type4,@Type5,@Type6}@event6@@SAXPAUanonymous$o3$1$addlistener/2np$event6{@Source,@Type1,@Type2,@Type3,@Type4,@Type5,@Type6}c_struct@1/7@PAXPAXPAXPAX@Z 
01:00022388 ?addListener@event6@@SAXQAV1@@PAXPAXPAXPAXPAXPAXPAXQAVrTypeLibrary@TypeLibraries@RunTime@VIP@@111XQAVevent3@@@PAXPAXPAXPAX@Z 
01:00022428 ?anonymous$o4$1$addlistener/2np$event6{@Source,@Type1,@Type2,@Type3,@Type4,@Type5,@Type6}@event6@@SAXPAUanonymous$o4$1$addlistener/2np$event6{@Source,@Type1,@Type2,@Type3,@Type4,@Type5,@Type6}c_struct@1/7@PAXPAXPAXPAXPAX@Z 
01:0002244C ?addListener@event6@@SAXQAV1@@PAXPAXPAXPAXPAXPAXPAXQAVrTypeLibrary@TypeLibraries@RunTime@VIP@@1111XQAVevent4@@@PAXPAXPAXPAXPAX@Z 
01:000224F0 ?anonymous$o5$1$addlistener/2np$event6{@Source,@Type1,@Type2,@Type3,@Type4,@Type5,@Type6}@event6@@SAXPAUanonymous$o5$1$addlistener/2np$event6{@Source,@Type1,@Type2,@Type3,@Type4,@Type5,@Type6}c_struct@1/7@PAXPAXPAXPAXPAXPAX@Z 
01:00022514 ?addListener@event6@@SAXQAV1@@PAXPAXPAXPAXPAXPAXPAXQAVrTypeLibrary@TypeLibraries@RunTime@VIP@@11111XQAVevent5@@@PAXPAXPAXPAXPAXPAX@Z 
01:000225C0 ?anonymous$o6$1$addlistener/2np$event6{@Source,@Type1,@Type2,@Type3,@Type4,@Type5,@Type6}@event6@@SAXPAUanonymous$o6$1$addlistener/2np$event6{@Source,@Type1,@Type2,@Type3,@Type4,@Type5,@Type6}c_struct@1/7@PAXPAXPAXPAXPAXPAXPAX@Z 
01:000225E4 ?addListener@event6@@SAXQAV1@@PAXPAXPAXPAXPAXPAXPAXQAVrTypeLibrary@TypeLibraries@RunTime@VIP@@111111X0@Z 
01:00022694 ?new@event5@@SAXQAV1@@PAXPAXPAXPAXPAXPAXQAVrTypeLibrary@TypeLibraries@RunTime@VIP@@11111PAX@Z  (Idle)
01:000226A8 ?addListener@event5@@SAXQAV1@@PAXPAXPAXPAXPAXPAXX@Z 
01:000226D0 ?anonymous$o0$1$addlistener/2np$event5{@Source,@Type1,@Type2,@Type3,@Type4,@Type5}@event5@@SAXPAUanonymous$o0$1$addlistener/2np$event5{@Source,@Type1,@Type2,@Type3,@Type4,@Type5}c_struct@1/6@PAX@Z 
01:000226F4 ?addListener@event5@@SAXQAV1@@PAXPAXPAXPAXPAXPAXQAVrTypeLibrary@TypeLibraries@RunTime@VIP@@XQAVevent0@@@PAX@Z 
01:00022778 ?removeListener@event5@@SAXQAV1@@PAXPAXPAXPAXPAXPAXX@Z 
01:00022818 ?removeAllListeners@event5@@SAXQAV1@@PAXPAXPAXPAXPAXPAX@Z 
01:00022854 ?hasListeners@event5@@SAXQAV1@@PAXPAXPAXPAXPAXPAX@Z 
01:00022874 ?notify@event5@@SAXQAV1@@PAXPAXPAXPAXPAXPAXPAXPAXPAXPAXPAX@Z 
01:000228FC ?_new@event5@@SAXQAVrTypeLibrary@TypeLibraries@RunTime@VIP@@00000PAXPAPAV1@@PAPAXPAPAXPAPAXPAPAXPAPAXPAPAX@Z  (Idle)
01:00022948 ?_object_typelib_initializer@event5@@SGXQAV1@@PAXPAXPAXPAXPAXPAXQAVrTypeLibrary@TypeLibraries@RunTime@VIP@@11111@Z 
01:0002297C ?anonymous$o1$1$addlistener/2np$event5{@Source,@Type1,@Type2,@Type3,@Type4,@Type5}@event5@@SAXPAUanonymous$o1$1$addlistener/2np$event5{@Source,@Type1,@Type2,@Type3,@Type4,@Type5}c_struct@1/6@PAXPAX@Z 
01:000229A0 ?addListener@event5@@SAXQAV1@@PAXPAXPAXPAXPAXPAXQAVrTypeLibrary@TypeLibraries@RunTime@VIP@@1XQAVevent1@@@PAXPAX@Z 
01:00022A2C ?anonymous$o2$1$addlistener/2np$event5{@Source,@Type1,@Type2,@Type3,@Type4,@Type5}@event5@@SAXPAUanonymous$o2$1$addlistener/2np$event5{@Source,@Type1,@Type2,@Type3,@Type4,@Type5}c_struct@1/6@PAXPAXPAX@Z 
01:00022A50 ?addListener@event5@@SAXQAV1@@PAXPAXPAXPAXPAXPAXQAVrTypeLibrary@TypeLibraries@RunTime@VIP@@11XQAVevent2@@@PAXPAXPAX@Z 
01:00022AE4 ?anonymous$o3$1$addlistener/2np$event5{@Source,@Type1,@Type2,@Type3,@Type4,@Type5}@event5@@SAXPAUanonymous$o3$1$addlistener/2np$event5{@Source,@Type1,@Type2,@Type3,@Type4,@Type5}c_struct@1/6@PAXPAXPAXPAX@Z 
01:00022B08 ?addListener@event5@@SAXQAV1@@PAXPAXPAXPAXPAXPAXQAVrTypeLibrary@TypeLibraries@RunTime@VIP@@111XQAVevent3@@@PAXPAXPAXPAX@Z 
01:00022BA0 ?anonymous$o4$1$addlistener/2np$event5{@Source,@Type1,@Type2,@Type3,@Type4,@Type5}@event5@@SAXPAUanonymous$o4$1$addlistener/2np$event5{@Source,@Type1,@Type2,@Type3,@Type4,@Type5}c_struct@1/6@PAXPAXPAXPAXPAX@Z 
01:00022BC4 ?addListener@event5@@SAXQAV1@@PAXPAXPAXPAXPAXPAXQAVrTypeLibrary@TypeLibraries@RunTime@VIP@@1111XQAVevent4@@@PAXPAXPAXPAXPAX@Z 
01:00022C64 ?anonymous$o5$1$addlistener/2np$event5{@Source,@Type1,@Type2,@Type3,@Type4,@Type5}@event5@@SAXPAUanonymous$o5$1$addlistener/2np$event5{@Source,@Type1,@Type2,@Type3,@Type4,@Type5}c_struct@1/6@PAXPAXPAXPAXPAXPAX@Z 
01:00022C88 ?addListener@event5@@SAXQAV1@@PAXPAXPAXPAXPAXPAXQAVrTypeLibrary@TypeLibraries@RunTime@VIP@@11111X0@Z 
01:00022D2C ?new@event4@@SAXQAV1@@PAXPAXPAXPAXPAXQAVrTypeLibrary@TypeLibraries@RunTime@VIP@@1111PAX@Z  (Idle)
01:00022D40 ?addListener@event4@@SAXQAV1@@PAXPAXPAXPAXPAXX@Z 
01:00022D68 ?anonymous$o0$1$addlistener/2np$event4{@Source,@Type1,@Type2,@Type3,@Type4}@event4@@SAXPAUanonymous$o0$1$addlistener/2np$event4{@Source,@Type1,@Type2,@Type3,@Type4}c_struct@1/5@PAX@Z 
01:00022D8C ?addListener@event4@@SAXQAV1@@PAXPAXPAXPAXPAXQAVrTypeLibrary@TypeLibraries@RunTime@VIP@@XQAVevent0@@@PAX@Z 
01:00022E0C ?removeListener@event4@@SAXQAV1@@PAXPAXPAXPAXPAXX@Z 
01:00022EAC ?removeAllListeners@event4@@SAXQAV1@@PAXPAXPAXPAXPAX@Z 
01:00022EE8 ?hasListeners@event4@@SAXQAV1@@PAXPAXPAXPAXPAX@Z 
01:00022F08 ?notify@event4@@SAXQAV1@@PAXPAXPAXPAXPAXPAXPAXPAXPAX@Z 
01:00022F8C ?_new@event4@@SAXQAVrTypeLibrary@TypeLibraries@RunTime@VIP@@0000PAXPAPAV1@@PAPAXPAPAXPAPAXPAPAXPAPAX@Z  (Idle)
01:00022FD4 ?_object_typelib_initializer@event4@@SGXQAV1@@PAXPAXPAXPAXPAXQAVrTypeLibrary@TypeLibraries@RunTime@VIP@@1111@Z 
01:00023004 ?anonymous$o1$1$addlistener/2np$event4{@Source,@Type1,@Type2,@Type3,@Type4}@event4@@SAXPAUanonymous$o1$1$addlistener/2np$event4{@Source,@Type1,@Type2,@Type3,@Type4}c_struct@1/5@PAXPAX@Z 
01:00023028 ?addListener@event4@@SAXQAV1@@PAXPAXPAXPAXPAXQAVrTypeLibrary@TypeLibraries@RunTime@VIP@@1XQAVevent1@@@PAXPAX@Z 
01:000230B0 ?anonymous$o2$1$addlistener/2np$event4{@Source,@Type1,@Type2,@Type3,@Type4}@event4@@SAXPAUanonymous$o2$1$addlistener/2np$event4{@Source,@Type1,@Type2,@Type3,@Type4}c_struct@1/5@PAXPAXPAX@Z 
01:000230D4 ?addListener@event4@@SAXQAV1@@PAXPAXPAXPAXPAXQAVrTypeLibrary@TypeLibraries@RunTime@VIP@@11XQAVevent2@@@PAXPAXPAX@Z 
01:00023160 ?anonymous$o3$1$addlistener/2np$event4{@Source,@Type1,@Type2,@Type3,@Type4}@event4@@SAXPAUanonymous$o3$1$addlistener/2np$event4{@Source,@Type1,@Type2,@Type3,@Type4}c_struct@1/5@PAXPAXPAXPAX@Z 
01:00023184 ?addListener@event4@@SAXQAV1@@PAXPAXPAXPAXPAXQAVrTypeLibrary@TypeLibraries@RunTime@VIP@@111XQAVevent3@@@PAXPAXPAXPAX@Z 
01:00023218 ?anonymous$o4$1$addlistener/2np$event4{@Source,@Type1,@Type2,@Type3,@Type4}@event4@@SAXPAUanonymous$o4$1$addlistener/2np$event4{@Source,@Type1,@Type2,@Type3,@Type4}c_struct@1/5@PAXPAXPAXPAXPAX@Z 
01:0002323C ?addListener@event4@@SAXQAV1@@PAXPAXPAXPAXPAXQAVrTypeLibrary@TypeLibraries@RunTime@VIP@@1111X0@Z 
01:000232D4 ?anonymous$o5$1$addlistener/2np$event4{@Source,@Type1,@Type2,@Type3,@Type4}@event4@@SAXPAUanonymous$o5$1$addlistener/2np$event4{@Source,@Type1,@Type2,@Type3,@Type4}c_struct@1/5@PAXPAXPAXPAXPAXPAX@Z 
01:000232F8 ?addListener@event4@@SAXQAV1@@PAXPAXPAXPAXPAXQAVrTypeLibrary@TypeLibraries@RunTime@VIP@@11111XQAVevent5@@@PAXPAXPAXPAXPAXPAX@Z 
01:00023398 ?new@event3@@SAXQAV1@@PAXPAXPAXPAXQAVrTypeLibrary@TypeLibraries@RunTime@VIP@@111PAX@Z  (Idle)
01:000233AC ?addListener@event3@@SAXQAV1@@PAXPAXPAXPAXX@Z 
01:000233D4 ?anonymous$o0$1$addlistener/2np$event3{@Source,@Type1,@Type2,@Type3}@event3@@SAXPAUanonymous$o0$1$addlistener/2np$event3{@Source,@Type1,@Type2,@Type3}c_struct@1/4@PAX@Z 
01:000233F8 ?addListener@event3@@SAXQAV1@@PAXPAXPAXPAXQAVrTypeLibrary@TypeLibraries@RunTime@VIP@@XQAVevent0@@@PAX@Z 
01:00023470 ?removeListener@event3@@SAXQAV1@@PAXPAXPAXPAXX@Z 
01:00023510 ?removeAllListeners@event3@@SAXQAV1@@PAXPAXPAXPAX@Z 
01:0002354C ?hasListeners@event3@@SAXQAV1@@PAXPAXPAXPAX@Z 
01:0002356C ?notify@event3@@SAXQAV1@@PAXPAXPAXPAXPAXPAXPAX@Z 
01:000235F0 ?_new@event3@@SAXQAVrTypeLibrary@TypeLibraries@RunTime@VIP@@000PAXPAPAV1@@PAPAXPAPAXPAPAXPAPAX@Z  (Idle)
01:00023630 ?_object_typelib_initializer@event3@@SGXQAV1@@PAXPAXPAXPAXQAVrTypeLibrary@TypeLibraries@RunTime@VIP@@111@Z 
01:00023658 ?anonymous$o1$1$addlistener/2np$event3{@Source,@Type1,@Type2,@Type3}@event3@@SAXPAUanonymous$o1$1$addlistener/2np$event3{@Source,@Type1,@Type2,@Type3}c_struct@1/4@PAXPAX@Z 
01:0002367C ?addListener@event3@@SAXQAV1@@PAXPAXPAXPAXQAVrTypeLibrary@TypeLibraries@RunTime@VIP@@1XQAVevent1@@@PAXPAX@Z 
01:000236FC ?anonymous$o2$1$addlistener/2np$event3{@Source,@Type1,@Type2,@Type3}@event3@@SAXPAUanonymous$o2$1$addlistener/2np$event3{@Source,@Type1,@Type2,@Type3}c_struct@1/4@PAXPAXPAX@Z 
01:00023720 ?addListener@event3@@SAXQAV1@@PAXPAXPAXPAXQAVrTypeLibrary@TypeLibraries@RunTime@VIP@@11XQAVevent2@@@PAXPAXPAX@Z 
01:000237A8 ?anonymous$o3$1$addlistener/2np$event3{@Source,@Type1,@Type2,@Type3}@event3@@SAXPAUanonymous$o3$1$addlistener/2np$event3{@Source,@Type1,@Type2,@Type3}c_struct@1/4@PAXPAXPAXPAX@Z 
01:000237CC ?addListener@event3@@SAXQAV1@@PAXPAXPAXPAXQAVrTypeLibrary@TypeLibraries@RunTime@VIP@@111X0@Z 
01:00023858 ?anonymous$o4$1$addlistener/2np$event3{@Source,@Type1,@Type2,@Type3}@event3@@SAXPAUanonymous$o4$1$addlistener/2np$event3{@Source,@Type1,@Type2,@Type3}c_struct@1/4@PAXPAXPAXPAXPAX@Z 
01:0002387C ?addListener@event3@@SAXQAV1@@PAXPAXPAXPAXQAVrTypeLibrary@TypeLibraries@RunTime@VIP@@1111XQAVevent4@@@PAXPAXPAXPAXPAX@Z 
01:00023910 ?anonymous$o5$1$addlistener/2np$event3{@Source,@Type1,@Type2,@Type3}@event3@@SAXPAUanonymous$o5$1$addlistener/2np$event3{@Source,@Type1,@Type2,@Type3}c_struct@1/4@PAXPAXPAXPAXPAXPAX@Z 
01:00023934 ?addListener@event3@@SAXQAV1@@PAXPAXPAXPAXQAVrTypeLibrary@TypeLibraries@RunTime@VIP@@11111XQAVevent5@@@PAXPAXPAXPAXPAXPAX@Z 
01:000239CC ?new@event2@@SAXQAV1@@PAXPAXPAXQAVrTypeLibrary@TypeLibraries@RunTime@VIP@@11PAX@Z  (Idle)
01:000239E0 ?addListener@event2@@SAXQAV1@@PAXPAXPAXX@Z 
01:00023A08 ?anonymous$o0$1$addlistener/2np$event2{@Source,@Type1,@Type2}@event2@@SAXPAUanonymous$o0$1$addlistener/2np$event2{@Source,@Type1,@Type2}c_struct@1/3@PAX@Z 
01:00023A2C ?addListener@event2@@SAXQAV1@@PAXPAXPAXQAVrTypeLibrary@TypeLibraries@RunTime@VIP@@XQAVevent0@@@PAX@Z 
01:00023AA0 ?removeListener@event2@@SAXQAV1@@PAXPAXPAXX@Z 
01:00023B40 ?removeAllListeners@event2@@SAXQAV1@@PAXPAXPAX@Z 
01:00023B7C ?hasListeners@event2@@SAXQAV1@@PAXPAXPAX@Z 
01:00023B9C ?notify@event2@@SAXQAV1@@PAXPAXPAXPAXPAX@Z 
01:00023C1C ?_new@event2@@SAXQAVrTypeLibrary@TypeLibraries@RunTime@VIP@@00PAXPAPAV1@@PAPAXPAPAXPAPAX@Z  (Idle)
01:00023C58 ?_object_typelib_initializer@event2@@SGXQAV1@@PAXPAXPAXQAVrTypeLibrary@TypeLibraries@RunTime@VIP@@11@Z 
01:00023C7C ?anonymous$o1$1$addlistener/2np$event2{@Source,@Type1,@Type2}@event2@@SAXPAUanonymous$o1$1$addlistener/2np$event2{@Source,@Type1,@Type2}c_struct@1/3@PAXPAX@Z 
01:00023CA0 ?addListener@event2@@SAXQAV1@@PAXPAXPAXQAVrTypeLibrary@TypeLibraries@RunTime@VIP@@1XQAVevent1@@@PAXPAX@Z 
01:00023D1C ?anonymous$o2$1$addlistener/2np$event2{@Source,@Type1,@Type2}@event2@@SAXPAUanonymous$o2$1$addlistener/2np$event2{@Source,@Type1,@Type2}c_struct@1/3@PAXPAXPAX@Z 
01:00023D40 ?addListener@event2@@SAXQAV1@@PAXPAXPAXQAVrTypeLibrary@TypeLibraries@RunTime@VIP@@11X0@Z 
01:00023DC0 ?anonymous$o3$1$addlistener/2np$event2{@Source,@Type1,@Type2}@event2@@SAXPAUanonymous$o3$1$addlistener/2np$event2{@Source,@Type1,@Type2}c_struct@1/3@PAXPAXPAXPAX@Z 
01:00023DE4 ?addListener@event2@@SAXQAV1@@PAXPAXPAXQAVrTypeLibrary@TypeLibraries@RunTime@VIP@@111XQAVevent3@@@PAXPAXPAXPAX@Z 
01:00023E6C ?anonymous$o4$1$addlistener/2np$event2{@Source,@Type1,@Type2}@event2@@SAXPAUanonymous$o4$1$addlistener/2np$event2{@Source,@Type1,@Type2}c_struct@1/3@PAXPAXPAXPAXPAX@Z 
01:00023E90 ?addListener@event2@@SAXQAV1@@PAXPAXPAXQAVrTypeLibrary@TypeLibraries@RunTime@VIP@@1111XQAVevent4@@@PAXPAXPAXPAXPAX@Z 
01:00023F1C ?anonymous$o5$1$addlistener/2np$event2{@Source,@Type1,@Type2}@event2@@SAXPAUanonymous$o5$1$addlistener/2np$event2{@Source,@Type1,@Type2}c_struct@1/3@PAXPAXPAXPAXPAXPAX@Z 
01:00023F40 ?addListener@event2@@SAXQAV1@@PAXPAXPAXQAVrTypeLibrary@TypeLibraries@RunTime@VIP@@11111XQAVevent5@@@PAXPAXPAXPAXPAXPAX@Z 
01:00023FD4 ?new@event1@@SAXQAV1@@PAXPAXQAVrTypeLibrary@TypeLibraries@RunTime@VIP@@1PAX@Z  (Idle)
01:00023FE8 ?addListener@event1@@SAXQAV1@@PAXPAXX@Z 
01:00024010 ?anonymous$o0$1$addlistener/2np$event1{@Source,@Type1}@event1@@SAXPAUanonymous$o0$1$addlistener/2np$event1{@Source,@Type1}c_struct@1/2@PAX@Z 
01:00024034 ?addListener@event1@@SAXQAV1@@PAXPAXQAVrTypeLibrary@TypeLibraries@RunTime@VIP@@XQAVevent0@@@PAX@Z 
01:000240A0 ?removeListener@event1@@SAXQAV1@@PAXPAXX@Z 
01:00024140 ?removeAllListeners@event1@@SAXQAV1@@PAXPAX@Z 
01:0002417C ?hasListeners@event1@@SAXQAV1@@PAXPAX@Z 
01:0002419C ?notify@event1@@SAXQAV1@@PAXPAXPAX@Z 
01:00024218 ?_new@event1@@SAXQAVrTypeLibrary@TypeLibraries@RunTime@VIP@@0PAXPAPAV1@@PAPAXPAPAX@Z  (Idle)
01:0002424C ?_object_typelib_initializer@event1@@SGXQAV1@@PAXPAXQAVrTypeLibrary@TypeLibraries@RunTime@VIP@@1@Z 
01:00024268 ?anonymous$o1$1$addlistener/2np$event1{@Source,@Type1}@event1@@SAXPAUanonymous$o1$1$addlistener/2np$event1{@Source,@Type1}c_struct@1/2@PAXPAX@Z 
01:0002428C ?addListener@event1@@SAXQAV1@@PAXPAXQAVrTypeLibrary@TypeLibraries@RunTime@VIP@@1X0@Z 
01:00024300 ?anonymous$o2$1$addlistener/2np$event1{@Source,@Type1}@event1@@SAXPAUanonymous$o2$1$addlistener/2np$event1{@Source,@Type1}c_struct@1/2@PAXPAXPAX@Z 
01:00024324 ?addListener@event1@@SAXQAV1@@PAXPAXQAVrTypeLibrary@TypeLibraries@RunTime@VIP@@11XQAVevent2@@@PAXPAXPAX@Z 
01:000243A0 ?anonymous$o3$1$addlistener/2np$event1{@Source,@Type1}@event1@@SAXPAUanonymous$o3$1$addlistener/2np$event1{@Source,@Type1}c_struct@1/2@PAXPAXPAXPAX@Z 
01:000243C4 ?addListener@event1@@SAXQAV1@@PAXPAXQAVrTypeLibrary@TypeLibraries@RunTime@VIP@@111XQAVevent3@@@PAXPAXPAXPAX@Z 
01:00024444 ?anonymous$o4$1$addlistener/2np$event1{@Source,@Type1}@event1@@SAXPAUanonymous$o4$1$addlistener/2np$event1{@Source,@Type1}c_struct@1/2@PAXPAXPAXPAXPAX@Z 
01:00024468 ?addListener@event1@@SAXQAV1@@PAXPAXQAVrTypeLibrary@TypeLibraries@RunTime@VIP@@1111XQAVevent4@@@PAXPAXPAXPAXPAX@Z 
01:000244F0 ?anonymous$o5$1$addlistener/2np$event1{@Source,@Type1}@event1@@SAXPAUanonymous$o5$1$addlistener/2np$event1{@Source,@Type1}c_struct@1/2@PAXPAXPAXPAXPAXPAX@Z 
01:00024514 ?addListener@event1@@SAXQAV1@@PAXPAXQAVrTypeLibrary@TypeLibraries@RunTime@VIP@@11111XQAVevent5@@@PAXPAXPAXPAXPAXPAX@Z 
01:000245A0 ?new@event0@@SAXQAV1@@PAXQAVrTypeLibrary@TypeLibraries@RunTime@VIP@@PAX@Z  (Idle)
01:000245B4 ?addListener@event0@@SAXQAV1@@PAXX@Z 
01:000245DC ?anonymous$o0$1$addlistener/2np$event0{@Source}@event0@@SAXPAUanonymous$o0$1$addlistener/2np$event0{@Source}c_struct@1/1@PAX@Z 
01:00024600 ?addListener@event0@@SAXQAV1@@PAXQAVrTypeLibrary@TypeLibraries@RunTime@VIP@@X0@Z 
01:00024668 ?removeListener@event0@@SAXQAV1@@PAXX@Z 
01:00024708 ?removeAllListeners@event0@@SAXQAV1@@PAX@Z 
01:00024744 ?hasListeners@event0@@SAXQAV1@@PAX@Z 
01:00024764 ?notify@event0@@SAXQAV1@@PAX@Z 
--- From 'Obj\memory.89ECA104.obj'
01:000247DC ?_new@event0@@SAXQAVrTypeLibrary@TypeLibraries@RunTime@VIP@@PAXPAPAV1@@PAPAX@Z 
--- From 'Obj\event.5052287E.obj'
01:0002480C ?_object_typelib_initializer@event0@@SGXQAV1@@PAXQAVrTypeLibrary@TypeLibraries@RunTime@VIP@@@Z 
01:00024824 ?anonymous$o1$1$addlistener/2np$event0{@Source}@event0@@SAXPAUanonymous$o1$1$addlistener/2np$event0{@Source}c_struct@1/1@PAXPAX@Z 
01:00024848 ?addListener@event0@@SAXQAV1@@PAXQAVrTypeLibrary@TypeLibraries@RunTime@VIP@@1XQAVevent1@@@PAXPAX@Z 
01:000248B8 ?anonymous$o2$1$addlistener/2np$event0{@Source}@event0@@SAXPAUanonymous$o2$1$addlistener/2np$event0{@Source}c_struct@1/1@PAXPAXPAX@Z 
01:000248DC ?addListener@event0@@SAXQAV1@@PAXQAVrTypeLibrary@TypeLibraries@RunTime@VIP@@11XQAVevent2@@@PAXPAXPAX@Z 
01:00024950 ?anonymous$o3$1$addlistener/2np$event0{@Source}@event0@@SAXPAUanonymous$o3$1$addlistener/2np$event0{@Source}c_struct@1/1@PAXPAXPAXPAX@Z 
01:00024974 ?addListener@event0@@SAXQAV1@@PAXQAVrTypeLibrary@TypeLibraries@RunTime@VIP@@111XQAVevent3@@@PAXPAXPAXPAX@Z 
01:000249F0 ?anonymous$o4$1$addlistener/2np$event0{@Source}@event0@@SAXPAUanonymous$o4$1$addlistener/2np$event0{@Source}c_struct@1/1@PAXPAXPAXPAXPAX@Z 
01:00024A14 ?addListener@event0@@SAXQAV1@@PAXQAVrTypeLibrary@TypeLibraries@RunTime@VIP@@1111XQAVevent4@@@PAXPAXPAXPAXPAX@Z 
01:00024A94 ?anonymous$o5$1$addlistener/2np$event0{@Source}@event0@@SAXPAUanonymous$o5$1$addlistener/2np$event0{@Source}c_struct@1/1@PAXPAXPAXPAXPAXPAX@Z 
01:00024AB8 ?addListener@event0@@SAXQAV1@@PAXQAVrTypeLibrary@TypeLibraries@RunTime@VIP@@11111XQAVevent5@@@PAXPAXPAXPAXPAXPAX@Z 
01:00024B48 event7{@Source,@Type1,@Type2,@Type3,@Type4,@Type5,@Type6,@Type7}?_initObject@@@QAGXQAV1@H@Z 
01:00024B88 ?@create_object@event7@@SGQAV1@@PAXPAXPAXPAXPAXPAXPAXPAXQAVrTypeLibrary@TypeLibraries@RunTime@VIP@@0000000@Z 
01:00024BC8 event7{@Source,@Type1,@Type2,@Type3,@Type4,@Type5,@Type6,@Type7}?_InternalFinalizer@@@QAGXQAV1@@Z 
01:00024BDC event6{@Source,@Type1,@Type2,@Type3,@Type4,@Type5,@Type6}?_initObject@@@QAGXQAV1@H@Z 
01:00024C18 ?@create_object@event6@@SGQAV1@@PAXPAXPAXPAXPAXPAXPAXQAVrTypeLibrary@TypeLibraries@RunTime@VIP@@000000@Z 
01:00024C54 event6{@Source,@Type1,@Type2,@Type3,@Type4,@Type5,@Type6}?_InternalFinalizer@@@QAGXQAV1@@Z 
01:00024C68 event5{@Source,@Type1,@Type2,@Type3,@Type4,@Type5}?_initObject@@@QAGXQAV1@H@Z 
01:00024CA0 ?@create_object@event5@@SGQAV1@@PAXPAXPAXPAXPAXPAXQAVrTypeLibrary@TypeLibraries@RunTime@VIP@@00000@Z 
01:00024CD8 event5{@Source,@Type1,@Type2,@Type3,@Type4,@Type5}?_InternalFinalizer@@@QAGXQAV1@@Z 
01:00024CEC event4{@Source,@Type1,@Type2,@Type3,@Type4}?_initObject@@@QAGXQAV1@H@Z 
01:00024D20 ?@create_object@event4@@SGQAV1@@PAXPAXPAXPAXPAXQAVrTypeLibrary@TypeLibraries@RunTime@VIP@@0000@Z 
01:00024D54 event4{@Source,@Type1,@Type2,@Type3,@Type4}?_InternalFinalizer@@@QAGXQAV1@@Z 
01:00024D68 event3{@Source,@Type1,@Type2,@Type3}?_initObject@@@QAGXQAV1@H@Z 
01:00024D98 ?@create_object@event3@@SGQAV1@@PAXPAXPAXPAXQAVrTypeLibrary@TypeLibraries@RunTime@VIP@@000@Z 
01:00024DC8 event3{@Source,@Type1,@Type2,@Type3}?_InternalFinalizer@@@QAGXQAV1@@Z 
01:00024DDC event2{@Source,@Type1,@Type2}?_initObject@@@QAGXQAV1@H@Z 
01:00024E08 ?@create_object@event2@@SGQAV1@@PAXPAXPAXQAVrTypeLibrary@TypeLibraries@RunTime@VIP@@00@Z 
01:00024E34 event2{@Source,@Type1,@Type2}?_InternalFinalizer@@@QAGXQAV1@@Z 
01:00024E48 event1{@Source,@Type1}?_initObject@@@QAGXQAV1@H@Z 
01:00024E70 ?@create_object@event1@@SGQAV1@@PAXPAXQAVrTypeLibrary@TypeLibraries@RunTime@VIP@@0@Z 
01:00024E98 event1{@Source,@Type1}?_InternalFinalizer@@@QAGXQAV1@@Z 
01:00024EAC event0{@Source}?_initObject@@@QAGXQAV1@H@Z 
01:00024ED0 ?@create_object@event0@@SGQAV1@@PAXQAVrTypeLibrary@TypeLibraries@RunTime@VIP@@@Z 
01:00024EF4 event0{@Source}?_InternalFinalizer@@@QAGXQAV1@@Z 
--- From 'Obj\exception.B3237F89.obj'
01:00024F00 _runtimeExceptionRaiser 
01:00025074 ?_exceptionFromExceptionCode@runtime_exception@@SAXIPAPAUexception_struct@core@@@Z 
--- From 'Obj\string.C639126F.obj'
01:000250E4 ?_exceptionFromErrorCode@runtime_exception@@SAXIPAPAUexception_struct@core@@@Z 
--- From 'Obj\exception.B3237F89.obj'
01:00025854 ?raise_externalError_explicit@exception_exception@@SAXPAUprogramPoint_struct@core@@PBUerrorCode@programControl@@PAU?$__packedList_struct@UnamedValue@@@@@Z  (Idle)
01:000258C4 ?_tryGetDescriptor@exception@@SAXPBUtraceId@@PAUexception_struct@core@@PAPAUdescriptor_struct@1@@Z  (Idle)
01:00025954 ?findException@exception@@SAXPBUtraceId@@PAU?$__packedList_struct@U1@@@@Z  (Idle)
01:000259B4 ?_getDescriptor_nd@exception@@SAXPBUtraceId@@PAPAUdescriptor_struct@1@@Z 
01:000259DC ?_getDescriptorChain_nd@exception@@SAXQAVerrorDescriptorInformation@@@PAPAUdescriptor_struct@1@@Z 
01:00025A34 ?_getDescriptorChain1_nd@exception@@SAXQAVerrorDescriptorInformation@@@PAPAUdescriptor_struct@1@@Z 
01:00025B14 ?_getDescriptorChainFromPacked_nd@exception@@SAXPAU?$__packedList_struct@UnamedValue@@@@PAPAUdescriptor_struct@1@@Z 
--- From 'Obj\exceptiondump.364682AD.obj'
01:00025BB4 ?_getTraceInfo@exception@@SAXPBUtraceId@@PAPAUtraceInfo_struct@1@@Z 
--- From 'Obj\exception.B3237F89.obj'
01:00025CB0 ?_getStackInfo_nd@exception@@SAXQAVtrapInformationObject@@@PAPAUlineInfo_struct@1@@Z 
01:00025DEC ?_getModuleHandleByAddress@exception@@SAXPAXAAUhModule@@@Z  (Idle)
01:00025E3C ?_getModuleNameByAddress@exception@@SAXPAXPAPB_W@Z  (Idle)
01:00025E94 ?_tryGetLineInfo@exception@@SAXPAXPAPAUlineInfo_struct@1@@Z 
01:00025F44 ?_tryGetExtraInfo@exception@@SAXPAUdescriptor_struct@1@PB_WPAPAUvalue_struct@core@@@Z  (Idle)
01:00025F5C ?_searchInfoList@exception@@SAXPAU?$__packedList_struct@UnamedValue@@@@PB_WPAPAUvalue_struct@core@@@Z 
--- From 'Obj\string.C639126F.obj'
01:00025FC0 ?_getErrorCode@exception@@SAXPBUtraceId@@PAI@Z 
01:00026008 ?_tryGetErrorDescriptorInformation@exception@@SAXPBUtraceId@@PAPAVerrorDescriptorInformation@@@@Z 
--- From 'Obj\exception.B3237F89.obj'
01:00026030 ?_tryGetErrorDescriptorInformation1@exception@@SAXQAVtrapInformationObject@@@PAPAVerrorDescriptorInformation@@@@Z 
01:00026054 ?_getTrapInformationObject@exception@@SAXPBUtraceId@@PAPAVtrapInformationObject@@@@Z  (Idle)
01:00026124 ?_tryGetTrapInformationObject@exception@@SAXPBUtraceId@@PAPAVtrapInformationObject@@@@Z 
--- From 'Obj\registry.9E3F9277.obj'
01:000261C4 ?raiseDetailed_explicit@exception@@SAXPAUprogramPoint_struct@core@@PAUexception_struct@3@PAU?$__packedList_struct@UnamedValue@@@@@Z 
--- From 'Obj\string.C639126F.obj'
01:000261E0 ?raise_explicit@exception@@SAXPAUprogramPoint_struct@core@@PAUexception_struct@3@@Z 
01:000261F8 ?raise_explicit@exception@@SAXPAUprogramPoint_struct@core@@PAUexception_struct@3@PAU?$__packedList_struct@UnamedValue@@@@@Z 
01:00026338 ?raise_error_explicit@exception@@SAXPAUprogramPoint_struct@core@@@Z 
--- From 'Obj\exception.B3237F89.obj'
01:000263B8 ?raise_exception_explicit@exception@@SAXPAUprogramPoint_struct@core@@PAUexception_struct@3@@Z  (Idle)
01:00026438 ?raise_user_explicit@exception@@SAXPAUprogramPoint_struct@core@@PB_W@Z  (Idle)
01:00026450 ?raise_user_explicit@exception@@SAXPAUprogramPoint_struct@core@@PB_WPAU?$__packedList_struct@UnamedValue@@@@@Z 
01:00026470 ?raise_user_explicit@exception@@SAXPAUprogramPoint_struct@core@@PAUexception_struct@3@PB_WPAU?$__packedList_struct@UnamedValue@@@@@Z 
01:000264E0 ?raise_definiteUser_explicit@exception@@SAXPAUprogramPoint_struct@core@@PB_W@Z  (Idle)
01:000264F8 ?raise_definiteUser_explicit@exception@@SAXPAUprogramPoint_struct@core@@PB_WPAU?$__packedList_struct@UnamedValue@@@@@Z 
01:00026518 ?raise_definiteUser_explicit@exception@@SAXPAUprogramPoint_struct@core@@PAUexception_struct@3@PB_WPAU?$__packedList_struct@UnamedValue@@@@@Z 
01:0002659C ?raise_packed_explicit@exception@@SAXPAUprogramPoint_struct@core@@PAUtraceInfo_struct@1@@Z  (Idle)
--- From 'Obj\reflection.9A16C2FF.obj'
01:00026680 ?raise_errorf_explicit@exception@@SAXPAUprogramPoint_struct@core@@PB_W@Z 
--- From 'Obj\exception.B3237F89.obj'
01:00026744 ?raise_couldNotCreate_explicit@exception@@SAXPAUprogramPoint_struct@core@@PAU?$__packedList_struct@UnamedValue@@@@@Z  (Idle)
01:00026760 ?raise_removeListener_explicit@exception@@SAXPAUprogramPoint_struct@core@@PB_W@Z  (Idle)
--- From 'Obj\string.C639126F.obj'
01:000267D4 ?raise_nativeCallException_explicit@exception@@SAXPAUprogramPoint_struct@core@@PB_WPBUhResult@@PAU?$__packedList_struct@UnamedValue@@@@@Z 
--- From 'Obj\exception.B3237F89.obj'
01:00026808 ?raise_nativeCallException_explicit@exception@@SAXPAUprogramPoint_struct@core@@PB_WPBUhResult@@1PAU?$__packedList_struct@UnamedValue@@@@@Z 
01:000269A8 ?raise_unsupportedPredicate_explicit@exception@@SAXPAUprogramPoint_struct@core@@@Z 
01:000269C0 ?raise_overloadingExpected_explicit@exception@@SAXPAUprogramPoint_struct@core@@@Z  (Idle)
01:000269D8 ?continueDetailed_explicit@exception@@SAXPAUprogramPoint_struct@core@@PBUtraceId@@PAUexception_struct@3@@Z  (Idle)
01:000269F4 ?continueDetailed_explicit@exception@@SAXPAUprogramPoint_struct@core@@PBUtraceId@@PAUexception_struct@3@PAU?$__packedList_struct@UnamedValue@@@@@Z  (Idle)
--- From 'Obj\string.C639126F.obj'
01:00026A10 ?continue_explicit@exception@@SAXPAUprogramPoint_struct@core@@PBUtraceId@@PAUexception_struct@3@PAU?$__packedList_struct@UnamedValue@@@@@Z 
--- From 'Obj\exception.B3237F89.obj'
01:00026A40 ?continue1_explicit@exception@@SAXPAUprogrampoint_struct@core@@QAVtrapInformationObject@@@PAUexception_struct@3@PAU?$__packedList_struct@UnamedValue@@@@@Z 
01:00026BBC ?continue_exceptionInListener_explicit@exception@@SAXPAUprogramPoint_struct@core@@PBUtraceId@@PB_W@Z  (Idle)
--- From 'Obj\registry.9E3F9277.obj'
01:00026C30 ?continue_unknown_explicit@exception@@SAXPAUprogramPoint_struct@core@@PBUtraceId@@@Z 
--- From 'Obj\exception.B3237F89.obj'
01:00026CB4 ?continue_user_explicit@exception@@SAXPAUprogramPoint_struct@core@@PBUtraceId@@PB_W@Z  (Idle)
01:00026CD0 ?continue_user_explicit@exception@@SAXPAUprogramPoint_struct@core@@PBUtraceId@@PB_WPAU?$__packedList_struct@UnamedValue@@@@@Z 
01:00026CF4 ?continue_user_explicit@exception@@SAXPAUprogramPoint_struct@core@@PBUtraceId@@PAUexception_struct@3@PB_WPAU?$__packedList_struct@UnamedValue@@@@@Z 
01:00026D68 ?continue_definiteUser_explicit@exception@@SAXPAUprogramPoint_struct@core@@PBUtraceId@@PB_W@Z  (Idle)
01:00026D84 ?continue_definiteUser_explicit@exception@@SAXPAUprogramPoint_struct@core@@PBUtraceId@@PB_WPAU?$__packedList_struct@UnamedValue@@@@@Z 
01:00026DA8 ?continue_definiteUser_explicit@exception@@SAXPAUprogramPoint_struct@core@@PBUtraceId@@PAUexception_struct@3@PB_WPAU?$__packedList_struct@UnamedValue@@@@@Z 
01:00026E30 ?isDefiniteUserError@exception@@SAXPBUtraceId@@@Z  (Idle)
--- From 'Obj\filesystem.AD950C87.obj'
01:00026E6C ?_getLastErrorDescription@exception@@SAXPBUhResult@@PAPB_W@Z 
--- From 'Obj\exception.B3237F89.obj'
01:00026EA8 ?new@errorDescriptorInformation@@SAXQAV1@@PAUprogramPoint_struct@core@@PAUexception_struct@4@PAUkind_struct@exception@@PAU?$__packedList_struct@UnamedValue@@@@PAPBUgmtTimeValue@@PBUthreadId@multiThread_native@@@Z  (Idle)
01:00026F30 ?gmtTimeFormatted@errorDescriptorInformation@@SGPB_WQAV1@@@Z 
01:00026F60 ?_tryGetContinueException@errorDescriptorInformation@@SAXQAV1@@PAPAV1@@@Z 
01:00026F84 ?setContinueException@errorDescriptorInformation@@SAXQAV1@@0@Z 
01:00026FAC ?_create@errorDescriptorInformation@@SAXPAUprogramPoint_struct@core@@PAUexception_struct@3@PAUkind_struct@exception@@PAU?$__packedList_struct@UnamedValue@@@@PAPAV1@@@Z 
01:00026FF0 ?exceptionDescription@errorDescriptorInformation@@SGPB_WQAV1@@@Z 
--- From 'Obj\exceptiondump.364682AD.obj'
01:00027010 ?_formatDateTime@errorDescriptorInformation@@SAXPAPBUgmtTimeValue@core@@PAPB_W@Z 
--- From 'Obj\exception.B3237F89.obj'
01:0002709C ?_new@errorDescriptorInformation@@SAXPAUprogramPoint_struct@core@@PAUexception_struct@3@PAUkind_struct@exception@@PAU?$__packedList_struct@UnamedValue@@@@PAPBUgmtTimeValue@@PBUthreadId@multiThread_native@@PAPAV1@@@Z 
01:000270D4 ?exception@errorDescriptorInformation@@SGPAUexception_struct@core@@QAV1@@@Z 
01:000270E0 ?programPointDescriptor@errorDescriptorInformation@@SGPAUprogramPointDescriptor_struct@exception@@QAV1@@@Z 
01:000270EC ?kind@errorDescriptorInformation@@SGPAUkind_struct@exception@@QAV1@@@Z 
01:000270F8 ?extraInfo@errorDescriptorInformation@@SGXQAV1@@PAU?$__packedList_struct@UnamedValue@@@@@Z 
01:00027108 ?extraInfo@errorDescriptorInformation@@SGPAU?$__packedList_struct@UnamedValue@@@@QAV1@@@Z 
01:00027114 ?_gmtTime@errorDescriptorInformation@@SAXQAV1@@PAAAUgmtTimeValue@@@Z 
01:00027128 ?threadId@errorDescriptorInformation@@SGPBU0multiThread_native@@QAV1@@@Z 
01:0002713C errorDescriptorInformation?_initObject@@@QAGXQAV1@H@Z 
01:00027150 ?@create_object@errorDescriptorInformation@@SGQAV1@@XZ 
01:0002716C errorDescriptorInformation?_InternalFinalizer@@@QAGXQAV1@@Z 
--- From 'Obj\exceptiondump.364682AD.obj'
01:00027180 ?dump@exceptionDump@@SAXQAVoutputStream@@@PBUtraceId@exception@@@Z  (Idle)
01:000271A8 ?dump_info@exceptionDump@@SAXQAVoutputStream@@@PAUtraceInfo_struct@exception@@@Z 
01:00027234 ?dump_programPoint@exceptionDump@@SAXQAVoutputStream@@@PAUprogramPoint_struct@core@@@Z 
01:0002732C ?dumpToStdOutput@exceptionDump@@SAXPBUtraceId@exception@@@Z 
01:00027354 ?dumpToStdOutput_info@exceptionDump@@SAXPAUtraceInfo_struct@exception@@@Z 
01:000273B0 ?dumpToStdOutput_programpoint@exceptionDump@@SAXPAUprogramPoint_struct@core@@@Z  (Idle)
01:0002740C ?_dumpToString@exceptionDump@@SAXPBUtraceId@exception@@PAPB_W@Z  (Idle)
01:00027434 ?_dumpToString_info@exceptionDump@@SAXPAUtraceInfo_struct@exception@@PAPB_W@Z 
01:0002746C ?_dumpToString_programpoint@exceptionDump@@SAXPAUprogramPoint_struct@core@@PAPB_W@Z  (Idle)
01:000274A4 ?dumpToStdOutputInTrap@exceptionDump@@SAXQAVrTypeLibrary@TypeLibraries@RunTime@VIP@@PAXX@Z 
01:00027550 ?processErrorOnDumpToStdOut@exceptionDump@@SAXPAUtraceInfo_struct@exception@@@Z  (Idle)
01:000275C4 ?processErrorOnDumpToStdOutTrapped@exceptionDump@@SAXPBUtraceId@@@Z 
01:00027624 ?_formatDescriptorList@exceptionDump@@SAXPAU?$__packedList_struct@Udescriptor@exception@@@@PAPB_W@Z  (Idle)
01:0002765C ?_formatDescriptor@exceptionDump@@SAXPAUdescriptor_struct@exception@@PAPB_W@Z  (Idle)
01:00027694 ?_formatExtraInfo@exceptionDump@@SAXPAU?$__packedList_struct@UnamedValue@@@@PAPB_W@Z  (Idle)
01:000276CC ?_formatLineInfoList@exceptionDump@@SAXPAU?$__packedList_struct@UlineInfo@exception@@@@PAPB_W@Z  (Idle)
01:00027704 ?_fillUsrMsgTags@exceptionDump@@SAXPB_WPAU?$__packedList_struct@UnamedValue@@@@PAPB_W@Z  (Idle)
01:000277DC ?_substituteTag@exceptionDump@@SAXPB_WPAU?$__packedList_struct@UnamedValue@@@@PAPB_W@Z 
01:00027828 ?getUserMsgFromNV_dt@exceptionDump@@SAXPAU?$__packedList_struct@UnamedValue@@@@PAPB_W@Z  (Idle)
01:000278E0 ?getUserMsg_dt@exceptionDump@@SAXPAUdescriptor_struct@exception@@PAPB_W@Z  (Idle)
01:000278F8 ?_getUserMsg@exceptionDump@@SAXPAU?$__packedList_struct@Udescriptor@exception@@@@PAPB_W@Z  (Idle)
01:00027994 ?_tryGetUserMessage@exceptionDump@@SAXPBUtraceId@exception@@PAPB_W@Z  (Idle)
01:000279BC ?_tryGetUserMessage_info@exceptionDump@@SAXPAUtraceInfo_struct@exception@@PAPB_W@Z 
01:000279D4 ?_tryGetUserMessageFromDescriptorList@exceptionDump@@SAXPAU?$__packedList_struct@Udescriptor@exception@@@@PAPB_W@Z 
01:00027A00 ?writeTraceInfo@exceptionDump@@SAXQAVoutputStream@@@PAUtraceInfo_struct@exception@@@Z 
01:00027AB4 ?writeDescriptor_list@exceptionDump@@SAXQAVoutputStream@@@PAU?$__packedList_struct@Udescriptor@@@@@Z 
01:00027AF0 ?writeErrorDescriptorInformation@exceptionDump@@SAXQAVoutputStream@@@PAUdescriptor_struct@exception@@@Z 
01:00027E30 ?section@exceptionDump@@SAXQAVoutputStream@@@PB_W@Z  (Idle)
01:00027E78 ?writeOSInformation@exceptionDump@@SAXQAVoutputStream@@@PB_W@Z 
01:00027EEC ?writeLineInfo_list@exceptionDump@@SAXQAVoutputStream@@@PAU?$__packedList_struct@UlineInfo@@@@@Z 
01:00027F6C ?writeLineInfo@exceptionDump@@SAXQAVoutputStream@@@PAUlineInfo_struct@exception@@@Z 
01:0002800C ?writeException@exceptionDump@@SAXQAVoutputStream@@@PAUexception_struct@core@@@Z 
01:00028070 ?writeExtraInfo@exceptionDump@@SAXQAVoutputStream@@@PAU?$__packedList_struct@UnamedValue@@@@@Z 
01:000280F0 ?writePosition@exceptionDump@@SAXQAVoutputStream@@@IPB_W@Z 
01:00028134 ?writeNamedValue@exceptionDump@@SAXQAVoutputStream@@@PAUnamedValue_struct@core@@@Z 
01:000281F0 ?writeValue_or_NULL@exceptionDump@@SAXQAVoutputStream@@@PB_W@Z  (Idle)
01:00028268 ?writeValue@exceptionDump@@SAXQAVoutputStream@@@PAUvalue_struct@core@@@Z 
01:000285A4 ?writeValue_or_NULL@exceptionDump@@SAXQAVoutputStream@@@PAD@Z 
01:0002861C ?writeValue_or_NULL@exceptionDump@@SAXQAVoutputStream@@@QAE@Z 
01:00028694 ?writeValue_or_NULL@exceptionDump@@SAXQAVoutputStream@@@PBUbinaryNonAtomic@@@Z 
01:0002870C ?writeValue_or_NULL@exceptionDump@@SAXQAVoutputStream@@@QAVobject@@@@Z 
--- From 'Obj\filesystem.AD950C87.obj'
01:00028790 ?create@outputStream_file@@SAXQAV1@@PB_W@Z  (Idle)
01:000287B4 ?create@outputStream_file@@SAXQAV1@@PB_WPAUmode_struct@stream@@@Z  (Idle)
01:000287D4 ?create@outputStream_file@@SAXQAV1@@PB_WPAUmode_struct@stream@@PAUaccessPermit_struct@fileSystem_api@@@Z  (Idle)
01:000287E8 ?create@outputStream_file@@SAXQAV1@@PB_WPAUmode_struct@stream@@PAUaccessPermit_struct@fileSystem_api@@PAU?$__packedList_struct@UfileAttributeAtom@@@@@Z 
01:00028830 ?create8@outputStream_file@@SAXQAV1@@PB_W@Z  (Idle)
01:00028844 ?create8@outputStream_file@@SAXQAV1@@PB_WPAUaccessPermit_struct@fileSystem_api@@@Z 
01:00028870 ?createUtf8@outputStream_file@@SAXQAV1@@PB_W@Z  (Idle)
01:00028884 ?createUtf8@outputStream_file@@SAXQAV1@@PB_WPAUaccessPermit_struct@fileSystem_api@@@Z 
01:000288B0 ?createUtf8_bom@outputStream_file@@SAXQAV1@@PB_W@Z  (Idle)
01:000288C4 ?createUtf8_bom@outputStream_file@@SAXQAV1@@PB_WPAUaccessPermit_struct@fileSystem_api@@@Z 
01:00028918 ?commonPartOfConstructors@outputStream_file@@SAXQAV1@@PBUfileHandle@@PAUmode_struct@stream@@@Z 
01:00028978 ?handleMode_create@outputStream_file@@SAXQAV1@@PAUmode_struct@stream@@@Z 
01:000289C8 ?openFile@outputStream_file@@SAXQAV1@@PB_W@Z  (Idle)
01:000289E8 ?openFile8@outputStream_file@@SAXQAV1@@PB_W@Z  (Idle)
01:00028A08 ?openFileUtf8@outputStream_file@@SAXQAV1@@PB_W@Z  (Idle)
01:00028A28 ?openFile@outputStream_file@@SAXQAV1@@PB_WPAUmode_struct@stream@@@Z  (Idle)
01:00028A3C ?openFile@outputStream_file@@SAXQAV1@@PB_WPAUmode_struct@stream@@PAUaccessPermit_struct@fileSystem_api@@@Z 
01:00028A94 ?append@outputStream_file@@SAXQAV1@@PB_W@Z  (Idle)
01:00028AA8 ?append8@outputStream_file@@SAXQAV1@@PB_W@Z  (Idle)
01:00028ABC ?appendUtf8@outputStream_file@@SAXQAV1@@PB_W@Z  (Idle)
01:00028AD0 ?append@outputStream_file@@SAXQAV1@@PB_WPAUmode_struct@stream@@@Z 
01:00028B38 ?newHandleFile@outputStream_file@@SAXQAV1@@PBUfileHandle@@PAUmode_struct@stream@@@Z  (Idle)
01:00028B78 ?newHandle@outputStream_file@@SAXQAV1@@PBUfileHandle@@PAUmode_struct@stream@@@Z  (Idle)
01:00028B80 ?skipUnicodeSignature@outputStream_file@@SAXQAV1@@PAUmode_struct@stream@@@Z 
01:00028BE4 ?skip@outputStream_file@@SAXQAV1@@HPBUbyteCount@@@Z 
01:00028C58 ?getCRLFconversion@outputStream_file@@SGPAUboolean_struct@_builtIn@@QAVstream@@@@Z 
01:00028C88 ?setCRLFconversion@outputStream_file@@SGXQAVstream@@@PAUboolean_struct@_builtIn@@@Z 
01:00028CEC ?getPosition@outputStream_file@@SGPBUfileSize@fileSystem_api@@QAVstream@@@@Z 
01:00028DB4 ?setPosition@outputStream_file@@SGXQAVstream@@@PBUfileSize@fileSystem_api@@@Z 
01:00028EAC ?_checkMovingIsInsideBuffer@outputStream_file@@SAXQAV1@@PAPBUfileSize@fileSystem_api@@1PBUbyteCount@@AAU7@@Z 
01:00029048 ?setMaxOffsetUsedInCurrentBuffer@outputStream_file@@SAXQAV1@@PBUbyteCount@@@Z 
01:0002906C ?close@outputStream_file@@SGXQAVstream@@@@Z 
01:000290A0 ?flush@outputStream_file@@SAXQAVoutputStream@@@@Z 
01:000290C4 ?bufferFullCallBack@outputStream_file@@SAXQAV1@@PBUbyteCount@@@Z  (Idle)
01:0002913C ?convertLFtoCRLF_IfNeeded@outputStream_file@@SAXQAV1@@PAXPBUbyteCount@@PAPAXAAU3@@Z 
01:00029198 ?convertToANSI_IfNeeded@outputStream_file@@SAXQAV1@@PAXPBUbyteCount@@PAPAXAAU3@@Z 
01:00029234 ?getBuffer@outputStream_file@@SGXQAVbufferSupport@@@PAPAXAAUbyteCount@@@Z 
01:0002929C ?getBufferLocked@outputStream_file@@SGXQAVbufferSupport@@@PAPAXAAUbyteCount@@@Z 
01:000292B8 ?_create@outputStream_file@@SAXPB_WPAPAVoutputStream@@@@Z 
01:000292E0 ?_create@outputStream_file@@SAXPB_WPAUmode_struct@stream@@PAPAVoutputStream@@@@Z  (Idle)
01:0002930C ?_create@outputStream_file@@SAXPB_WPAUmode_struct@stream@@PAUaccessPermit_struct@fileSystem_api@@PAPAVoutputStream@@@@Z  (Idle)
01:0002933C ?_create@outputStream_file@@SAXPB_WPAUmode_struct@stream@@PAUaccessPermit_struct@fileSystem_api@@PAU?$__packedList_struct@UfileAttributeAtom@@@@PAPAVoutputStream@@@@Z  (Idle)
01:00029370 ?_create8@outputStream_file@@SAXPB_WPAPAVoutputStream@@@@Z  (Idle)
01:00029398 ?_create8@outputStream_file@@SAXPB_WPAUaccessPermit_struct@fileSystem_api@@PAPAVoutputStream@@@@Z  (Idle)
01:000293C4 ?_createUtf8@outputStream_file@@SAXPB_WPAPAVoutputStream@@@@Z  (Idle)
01:000293EC ?_createUtf8@outputStream_file@@SAXPB_WPAUaccessPermit_struct@fileSystem_api@@PAPAVoutputStream@@@@Z  (Idle)
01:00029418 ?_createUtf8_bom@outputStream_file@@SAXPB_WPAPAVoutputStream@@@@Z  (Idle)
01:00029440 ?_createUtf8_bom@outputStream_file@@SAXPB_WPAUaccessPermit_struct@fileSystem_api@@PAPAVoutputStream@@@@Z  (Idle)
01:0002946C ?_openFile@outputStream_file@@SAXPB_WPAPAVoutputStream@@@@Z  (Idle)
01:00029494 ?_openFile@outputStream_file@@SAXPB_WPAUmode_struct@stream@@PAPAVoutputStream@@@@Z  (Idle)
01:000294C0 ?_openFile@outputStream_file@@SAXPB_WPAUmode_struct@stream@@PAUaccessPermit_struct@fileSystem_api@@PAPAVoutputStream@@@@Z  (Idle)
01:000294F0 ?_openFile8@outputStream_file@@SAXPB_WPAPAVoutputStream@@@@Z  (Idle)
01:00029518 ?_openFileUtf8@outputStream_file@@SAXPB_WPAPAVoutputStream@@@@Z  (Idle)
01:00029540 ?_append@outputStream_file@@SAXPB_WPAPAVoutputStream@@@@Z  (Idle)
01:00029568 ?_append@outputStream_file@@SAXPB_WPAUmode_struct@stream@@PAPAVoutputStream@@@@Z  (Idle)
01:00029594 ?_append8@outputStream_file@@SAXPB_WPAPAVoutputStream@@@@Z  (Idle)
01:000295BC ?_appendUtf8@outputStream_file@@SAXPB_WPAPAVoutputStream@@@@Z  (Idle)
01:000295E4 ?_newHandleFile@outputStream_file@@SAXPBUfileHandle@@PAUmode_struct@stream@@PAPAVoutputStream@@@@Z  (Idle)
01:00029610 ?_newHandle@outputStream_file@@SAXPBUfileHandle@@PAUmode_struct@stream@@PAPAVoutputStream@@@@Z  (Idle)
01:0002963C ?_object_facts_initializer@outputStream_file@@SGXQAV1@@@Z 
01:0002965C ?append@messageFile@@SAXQAV1@@PB_W@Z  (Idle)
01:00029670 ?append@messageFile@@SAXQAV1@@PB_WPAUmode_struct@stream@@@Z 
01:00029688 ?flush@messageFile@@SAXQAVoutputStream@@@@Z 
01:00029690 ?anonymous$o0$1$write/0ep$messageFile@1@SAXPAUanonymous$o0$1$write/0ep$messageFilec_struct@1@QAVoutputStream@@@@Z 
01:000296BC ?write@messageFile@@SAXQAVoutputStream@@@@Z 
01:0002975C ?anonymous$o0$1$writef/1ep$messageFile@1@SAXPAUanonymous$o0$1$writef/1ep$messageFilec_struct@1@QAVoutputStream@@@@Z 
01:00029794 ?writef@messageFile@@SAXQAVoutputStream@@@PB_W@Z 
01:00029838 ?anonymous$o0$1$writequoted/0ep$messageFile@1@SAXPAUanonymous$o0$1$writequoted/0ep$messageFilec_struct@1@QAVoutputStream@@@@Z 
01:00029864 ?writeQuoted@messageFile@@SAXQAVoutputStream@@@@Z 
01:00029904 ?anonymous$o0$1$nl/0np$messageFile@1@SAXQAVoutputStream@@@@Z 
01:00029914 ?nl@messageFile@@SAXQAVoutputStream@@@@Z 
01:00029930 ?anonymous$o0$1$writebytes/2np$messageFile@1@SAXPAUanonymous$o0$1$writebytes/2np$messageFilec_struct@1@QAVoutputStream@@@@Z 
01:00029968 ?writeBytes@messageFile@@SAXQAVoutputStream@@@PAXPBUbyteCount@@@Z 
01:000299A4 ?anonymous$o0$1$save/1np$messageFile@1@SAXPAUanonymous$o0$1$save/1np$messageFilec_struct@1@QAVoutputStream@@@@Z 
01:000299C8 ?save@messageFile@@SAXQAVoutputStream@@@PBUfactDB@@@Z 
01:00029A00 ?writeOperation@messageFile@@SAXQAV1@@X@Z 
01:00029AAC ?setMode@messageFile@@SGXQAVstream@@@PAUmode_struct@2@@Z 
01:00029AC4 ?getMode@messageFile@@SGPAUmode_struct@stream@@QAV3@@@Z 
01:00029ADC ?getCRLFconversion@messageFile@@SGPAUboolean_struct@_builtIn@@QAVstream@@@@Z 
01:00029AF4 ?setCRLFconversion@messageFile@@SGXQAVstream@@@PAUboolean_struct@_builtIn@@@Z 
01:00029B1C ?close@messageFile@@SGXQAVstream@@@@Z 
01:00029B2C ?getPosition@messageFile@@SGPBUfileSize@fileSystem_api@@QAVstream@@@@Z 
01:00029B44 ?setPosition@messageFile@@SGXQAVstream@@@PBUfileSize@fileSystem_api@@@Z 
01:00029B5C ?_append@messageFile@@SAXPB_WPAPAVoutputStream@@@@Z  (Idle)
01:00029B84 ?_append@messageFile@@SAXPB_WPAUmode_struct@stream@@PAPAVoutputStream@@@@Z  (Idle)
01:00029BB0 ?_object_facts_initializer@messageFile@@SGXQAV1@@@Z 
01:00029BC8 ?allowNullPointers@messageFile@@SGXQAVstream@@@PAUboolean_struct@_builtIn@@@Z 
01:00029BD8 ?allowNullPointers@messageFile@@SGPAUboolean_struct@_builtIn@@QAVstream@@@@Z 
01:00029BE4 ?openFile8@inputStream_file@@SAXQAV1@@PB_W@Z  (Idle)
01:00029BF8 ?openFileUtf8@inputStream_file@@SAXQAV1@@PB_W@Z  (Idle)
01:00029C0C ?openFile@inputStream_file@@SAXQAV1@@PB_W@Z  (Idle)
01:00029C20 ?openFile@inputStream_file@@SAXQAV1@@PB_WPAUmode_struct@stream@@@Z 
01:00029C34 ?openFile@inputStream_file@@SAXQAV1@@PB_WPAUmode_struct@stream@@PAUaccessPermit_struct@fileSystem_api@@@Z 
01:00029C4C ?openFile@inputStream_file@@SAXQAV1@@PB_WPAUmode_struct@stream@@PAUaccessPermit_struct@fileSystem_api@@PBUbyteCount@@@Z 
01:00029C9C ?newHandle@inputStream_file@@SAXQAV1@@PBUfileHandle@@PAUmode_struct@stream@@@Z  (Idle)
01:00029CB0 ?newBlockedPipe@inputStream_file@@SAXQAV1@@PBUfileHandle@@PAUmode_struct@stream@@@Z  (Idle)
01:00029CD4 ?newHandleFile@inputStream_file@@SAXQAV1@@PBUfileHandle@@PAUmode_struct@stream@@@Z  (Idle)
01:00029D04 ?_halfBufferSize@inputStream_file@@SAXQAV1@@AAUbyteCount@@@Z  (Idle)
01:00029D1C ?commonPartOfConstructors@inputStream_file@@SAXQAV1@@PBUfileHandle@@PAUmode_struct@stream@@PAUboolean_struct@_builtIn@@@Z 
01:00029DE4 ?allocBuffer@inputStream_file@@SAXQAV1@@@Z 
01:00029E3C ?skipUnicodeSignature@inputStream_file@@SAXQAV1@@PAUmode_struct@stream@@@Z 
01:00029EA0 ?skip@inputStream_file@@SAXQAV1@@HPBUbyteCount@@@Z 
01:00029F14 ?handlingMode@inputStream_file@@SAXQAV1@@PAUmode_struct@stream@@@Z 
01:00029FE0 ?checkBufferSize@inputStream_file@@SAXPBUbyteCount@@@Z 
01:0002A034 ?getPosition@inputStream_file@@SGPBUfileSize@fileSystem_api@@QAVstream@@@@Z 
01:0002A108 ?_handlingFileMode@inputStream_file@@SAXQAV1@@PAUmode_struct@stream@@PBUbyteCount@@2AAU5@@Z 
01:0002A1A8 ?_handleTextMode@inputStream_file@@SAXQAV1@@PAUmode_struct@stream@@PBUbyteCount@@IAAU5@@Z 
01:0002A23C ?_getPassedConv@inputStream_file@@SAXPAU?$__packedList_struct@UbyteCount@@@@IIPBU2@PAI@Z 
01:0002A2DC ?setPosition@inputStream_file@@SGXQAVstream@@@PBUfileSize@fileSystem_api@@@Z 
01:0002A420 ?_checkMovingIsInsideBuffer@inputStream_file@@SAXPAPBUfileSize@fileSystem_api@@0PBUbyteCount@@2AAU6@@Z 
01:0002A5CC ?close@inputStream_file@@SGXQAVstream@@@@Z 
01:0002A5F4 ?getCRLFconversion@inputStream_file@@SGPAUboolean_struct@_builtIn@@QAVstream@@@@Z 
01:0002A63C ?setCRLFconversion@inputStream_file@@SGXQAVstream@@@PAUboolean_struct@_builtIn@@@Z 
01:0002A704 ?setMode@inputStream_file@@SGXQAVstream@@@PAUmode_struct@2@@Z 
01:0002A7B0 ?_checkModeAndPos@inputStream_file@@SAXQAV1@@PAUmode_struct@stream@@PAPBUfileSize@fileSystem_api@@PAAAU56@@Z 
01:0002A8E8 ?getBufferLocked@inputStream_file@@SGXQAVbufferSupport@@@PAPAXAAUbyteCount@@@Z 
01:0002A914 ?getBuffer@inputStream_file@@SGXQAVbufferSupport@@@PAPAXAAUbyteCount@@@Z 
01:0002A968 ?_fillBuffer@inputStream_file@@SAXQAV1@@PAUmode_struct@stream@@AAUbyteCount@@@Z 
01:0002AAB0 ?_getChar8sToSave@inputStream_file@@SAXPBUcodePage@@PAXPBUbyteCount@@AAU3@@Z 
01:0002AB1C ?_getChar8sToSave_utf8@inputStream_file@@SAXPAXPBUbyteCount@@AAU2@@Z 
01:0002ABA0 ?_utf8CharLength@inputStream_file@@SAXPBUunsigned8@@AAUbyteCount@@@Z 
01:0002AD7C ?_convertToUnicode@inputStream_file@@SAXQAV1@@PBUbyteCount@@PBUcodePage@@PAXAAUcharCount@@@Z 
01:0002ADF4 ?convertCRLFtoLF_ifNeeded@inputStream_file@@SAXQAV1@@PAUmode_struct@stream@@PBUbyteCount@@PAPAXAAU5@@Z 
01:0002AEBC ?handlingBufferLastChar@inputStream_file@@SAXQAV1@@PBUbyteCount@@PAPAXAAU3@@Z 
01:0002AF00 ?_readFromFile@inputStream_file@@SAXQAV1@@PAXPBUbyteCount@@AAU3@@Z 
01:0002AF48 ?_openFile@inputStream_file@@SAXPB_WPAPAVinputStream@@@@Z  (Idle)
01:0002AF70 ?_openFile@inputStream_file@@SAXPB_WPAUmode_struct@stream@@PAPAVinputStream@@@@Z  (Idle)
01:0002AF9C ?_openFile@inputStream_file@@SAXPB_WPAUmode_struct@stream@@PAUaccessPermit_struct@fileSystem_api@@PAPAVinputStream@@@@Z 
01:0002AFCC ?_openFile@inputStream_file@@SAXPB_WPAUmode_struct@stream@@PAUaccessPermit_struct@fileSystem_api@@PBUbyteCount@@PAPAVinputStream@@@@Z  (Idle)
01:0002B000 ?_openFile8@inputStream_file@@SAXPB_WPAPAVinputStream@@@@Z  (Idle)
01:0002B028 ?_openFileUtf8@inputStream_file@@SAXPB_WPAPAVinputStream@@@@Z  (Idle)
01:0002B050 ?_newHandleFile@inputStream_file@@SAXPBUfileHandle@@PAUmode_struct@stream@@PAPAVinputStream@@@@Z  (Idle)
01:0002B07C ?_newHandle@inputStream_file@@SAXPBUfileHandle@@PAUmode_struct@stream@@PAPAVinputStream@@@@Z  (Idle)
01:0002B0A8 ?_newBlockedPipe@inputStream_file@@SAXPBUfileHandle@@PAUmode_struct@stream@@PAPAVinputStream@@@@Z  (Idle)
01:0002B0D4 ?_object_facts_initializer@inputStream_file@@SGXQAV1@@@Z 
01:0002B0FC ?_tryVerQueryValue@fileVersion@@SAXQAEPB_WPAPAX@Z  (Idle)
01:0002B148 ?_getFileVersionInformation@fileVersion@@SAXQAEPB_W1PAPB_W@Z  (Idle)
01:0002B1E8 ?_loadVersionInfo@fileVersion@@SAXPB_WQAPAE@Z  (Idle)
01:0002B320 ?_getLanguageAndCodePageKey@fileVersion@@SAXQAEPAPB_W@Z  (Idle)
01:0002B3B0 ?_getVersionInfo@fileVersion@@SAXPB_WPAPAUversionInformation_struct@1@@Z  (Idle)
01:0002B480 ?_getVersionBuildTime@fileVersion@@SAXPB_WPAPB_W@Z  (Idle)
01:0002B4D8 ?_getProductVersion@fileVersion@@SAXPB_WPAPA_K@Z  (Idle)
01:0002B53C ?_getRootKey@fileVersion@@SAXQAEPAPAUvs_fixedfileinfo_struct@1@@Z 
01:0002B588 ?_getFileVersionInfo@fileVersion@@SAXPB_WPAPAUfileVersionInformation_struct@1@@Z  (Idle)
01:0002B63C ?raise_fileAlreadyExists_explicit@fileSystem_exception@@SAXPAUprogramPoint_struct@core@@PB_W@Z  (Idle)
01:0002B6B0 ?raise_wrongAttribute_explicit@fileSystem_exception@@SAXPAUprogramPoint_struct@core@@I@Z  (Idle)
01:0002B724 ?raise_fileTooBig_explicit@fileSystem_exception@@SAXPAUprogramPoint_struct@core@@PB_W@Z  (Idle)
01:0002B798 ?checkFileReadResult_explicit@fileSystem_exception@@SAXPAUprogramPoint_struct@core@@H@Z  (Idle)
01:0002B7D4 ?_getPath@filename@@SAXPB_WPAPB_W@Z  (Idle)
01:0002B7F4 ?_getPosLastSlash@filename@@SAXPB_WAAUcharCount@@@Z  (Idle)
01:0002B860 ?_getNameWithExtension@filename@@SAXPB_WPAPB_W@Z  (Idle)
01:0002B894 ?getPathAndName@filename@@SAXPB_WPAPB_W1@Z 
01:0002B8DC ?_getName1@filename@@SAXPB_WPAPB_W@Z  (Idle)
01:0002B910 ?_getLastDirectory@filename@@SAXPB_WPAPB_W1@Z  (Idle)
01:0002B968 ?_removeLastSlash@filename@@SAXPB_WPAPB_W@Z 
01:0002B9E8 ?_getName@filename@@SAXPB_WPAPB_W@Z  (Idle)
01:0002BA10 ?_charGet@filename@@SAXPB_WPBUcharCountOptional@@AAU2@@Z  (Idle)
01:0002BA8C ?_getExtension@filename@@SAXPB_WPAPB_W@Z  (Idle)
01:0002BAE4 ?_getExtension@filename@@SAXPB_WPAPB_W1@Z  (Idle)
01:0002BB5C ?_setPath@filename@@SAXPB_W0PAPB_W@Z  (Idle)
01:0002BB88 ?_setName@filename@@SAXPB_W0PAPB_W@Z  (Idle)
01:0002BBE4 ?_setExtension@filename@@SAXPB_W0PAPB_W@Z  (Idle)
01:0002BCEC ?_reduce@filename@@SAXPB_W0PAPB_W@Z  (Idle)
01:0002BE00 ?_reduceToShort@filename@@SAXPB_W0PAPB_W@Z  (Idle)
01:0002BE4C ?getFirstDirectory@filename@@SAXPB_WPAPB_W1@Z 
01:0002BF34 ?getNetName@filename@@SAXPB_W0PAPB_W2@Z 
01:0002BF8C ?_setTrailSlash@filename@@SAXPB_WPAPB_W@Z 
01:0002BFDC ?_getSlashList@filename@@SAXPB_W_WPBUcharCount@@PAPAU?$__packedList_struct@U2@@@@Z  (Idle)
01:0002C06C ?_tail@filename@@SAXPB_WPBUcharCount@@PAPB_W@Z 
01:0002C08C ?_getOrderedList@filename@@SAXPAU?$__packedList_struct@UcharCount@@@@0PAPAU?$__packedList_struct@U2@@@@Z  (Idle)
01:0002C144 ?splitPathString@filename@@SAXPB_WPAU?$__packedList_struct@UcharCount@@@@PBU2@PAPAU?$__packedList_struct@Ustring@@@@AAU2@@Z  (Idle)
01:0002C1D4 ?splitOntoPathAndName@filename@@SAXPB_WPAPAU?$__packedList_struct@Ustring@@@@PAPB_W@Z 
01:0002C27C ?_splitFileExt@filename@@SAXPB_WPAPB_W@Z 
01:0002C2BC ?_splitFileName@filename@@SAXPB_WPAPB_W@Z 
01:0002C308 ?_directoryCompare@filename@@SAXPAU?$__packedList_struct@Ustring@@@@0PAPB_W@Z 
01:0002C38C ?_glueRest@filename@@SAXPAU?$__packedList_struct@Ustring@@@@0PAPB_W@Z 
01:0002C3DC ?splitPath@filename@@SAXPB_WPAPAU?$__packedList_struct@Ustring@@@@AAUcharCount@@@Z 
01:0002C44C ?_nameConcat@filename@@SAXPB_W00PAPB_W@Z 
01:0002C4E0 ?_createPath@filename@@SAXPB_W0PAPB_W@Z  (Idle)
01:0002C550 ?_reducePath@filename@@SAXPB_WPAPB_W@Z  (Idle)
01:0002C5D0 ?_createPath@filename@@SAX_WPB_W11PAPB_W@Z 
01:0002C690 ?_concatWithSlash@filename@@SAXPB_W0PAPB_W@Z 
01:0002C728 ?_getTypeOfSlash@filename@@SAXPB_W0PAPB_W@Z 
01:0002C7D4 ?isSlash@filename@@SAX_W@Z 
01:0002C7F4 ?_checkSecondCharAfterSlash@filename@@SAXPB_W00PAPB_W@Z 
01:0002C8C0 ?_checkThirdCharAfterColon@filename@@SAXPB_W_W00PAPB_W@Z 
01:0002C994 ?_reducePath@filename@@SAX_WPB_WPAPB_W@Z 
01:0002C9C4 ?_applyFileName@filename@@SAXPB_WPAU?$__packedList_struct@Ustring@@@@PAPAU?$__packedList_struct@U2@@@@Z 
01:0002CAD4 ?stay_dir@filename@@SAXPB_W@Z  (Idle)
01:0002CB14 ?up_dir@filename@@SAXPB_W@Z 
01:0002CB5C ?_reducePath_reversed@filename@@SAXPAU?$__packedList_struct@Ustring@@@@PAPAU?$__packedList_struct@U2@@@@Z 
01:0002CC3C ?_upOneDir_reversed@filename@@SAXPAU?$__packedList_struct@Ustring@@@@PAPAU?$__packedList_struct@U2@@@@Z 
01:0002CD5C ?notDriveOrNetworkVolume@filename@@SAXPB_W@Z 
01:0002CE14 ?front_wc@filename@@SAXPB_WPBUcharCount@@PAPB_W2@Z 
01:0002CE48 ?_normalize@filename@@SAXPB_WPAPB_W@Z  (Idle)
01:0002CF24 ?_normalizeSl@filename@@SAXPB_WPAPB_W@Z 
01:0002CF74 ?isAbsolutePath@filename@@SAXPB_W@Z  (Idle)
01:0002D014 ?up_dir@filename@@SAXPAPB_W@Z 
01:0002D028 ?copy@file@@SAXPB_W0@Z  (Idle)
01:0002D03C ?copy@file@@SAXPB_W0PAUoverwrite_struct@1@@Z 
01:0002D0A8 ?move@file@@SAXPB_W0@Z  (Idle)
01:0002D0BC ?move@file@@SAXPB_W0PAUoverwrite_struct@1@@Z 
01:0002D140 ?delete@file@@SAXPB_W@Z  (Idle)
01:0002D1D4 ?existExactFile@file@@SAXPB_W@Z  (Idle)
01:0002D208 ?existFile@file@@SAXPB_W@Z  (Idle)
01:0002D340 ?tryGetFile@file@@SAXPBUsearchHandle@@PAUwin32_find_data_struct@fileSystem_native@@@Z 
01:0002D3E4 ?_createUniqueName@file@@SAXPB_W0PAPB_W@Z 
01:0002D4EC ?_getPhysicalName@file@@SAXPB_WPAPB_W@Z  (Idle)
01:0002D6F4 ?setAttributes@file@@SAXPB_WPAU?$__packedList_struct@UfileAttributeAtom@@@@PAUboolean_struct@_builtIn@@@Z  (Idle)
01:0002D93C ?getFileProperties@file@@SAXPB_WPAPAU?$__packedList_struct@UfileAttributeAtom@@@@PAAAUfileSize@fileSystem_api@@PAAAUgmtTimeValue@@33@Z  (Idle)
01:0002DA00 ?_tryGetLastChange@file@@SAXPB_WPAAAUgmtTimeValue@@@Z  (Idle)
01:0002DA64 ?setFileTime@file@@SAXPB_WPAPBUgmtTimeValue@@11@Z  (Idle)
01:0002DCA0 ?moveToRecycleBin@file@@SAXPB_W@Z  (Idle)
01:0002DDDC ?_readBinary@file@@SAXPB_WQAPAE@Z  (Idle)
01:0002DEA0 ?_readFile@file@@SAXPBUfileHandle@@PAXPBUbyteCount@@AAU3@@Z 
01:0002DEA8 ?_readBinary@file@@SAXPB_WPAPBUfileSize@fileSystem_api@@PBUbyteCount@@QAPAE@Z  (Idle)
01:0002DFF4 ?_readString@file@@SAXPB_WPAPB_W@Z  (Idle)
01:0002E014 ?_readString@file@@SAXPB_WPAPAUboolean_struct@_builtIn@@PAPB_W@Z 
01:0002E0A8 ?_readStringFromHandle@file@@SAXPBUfileHandle@@PAPAUboolean_struct@_builtIn@@PAPB_W@Z 
01:0002E198 ?isUnicode@file@@SAXPB_W@Z  (Idle)
01:0002E2B4 ?tryBOM@file@@SAXPAXPBUbyteCount@@PB_W1@Z  (Idle)
01:0002E2EC ?checkUnicode@file@@SAXPAXPBUbyteCount@@PAPAUmode_struct@stream@@AAU2@@Z 
01:0002E3AC ?_getString@file@@SAXPBUbyteCount@@PAXPAUmode_struct@stream@@0PAPB_W@Z 
01:0002E408 ?_getString2@file@@SAXPBUbyteCount@@PAXPAUmode_struct@stream@@PAXPAPB_W@Z 
01:0002E4C8 ?_getFileSize@file@@SAXPBUfileHandle@@PB_WAAUbyteCount@@@Z 
01:0002E59C ?writeBinary@file@@SAXPB_WQAE@Z  (Idle)
01:0002E648 ?writeFile@file@@SAXPBUfileHandle@@PAXPBUbyteCount@@@Z 
01:0002E66C ?writeBinary@file@@SAXPB_WPAPBUfileSize@fileSystem_api@@QAE@Z  (Idle)
01:0002E730 ?appendString@file@@SAXPB_W0PAUboolean_struct@_builtIn@@@Z  (Idle)
01:0002E780 ?writeString@file@@SAXPB_W0@Z  (Idle)
01:0002E7AC ?writeString@file@@SAXPB_W0PAUboolean_struct@_builtIn@@@Z  (Idle)
01:0002E7CC ?writeStringUtf8@file@@SAXPB_W0@Z  (Idle)
01:0002E7F4 ?writeStringUtf8_bom@file@@SAXPB_W0@Z  (Idle)
01:0002E81C ?writeString_codePage@file@@SAXPB_W0PBU2@@Z 
01:0002E85C ?writeStringAndClose@file@@SAXQAVoutputStream@@@PB_W@Z 
01:0002E8E8 ?checkResult@file@@SAXPBUhResult@@PB_W11PAUoverwrite_struct@1@@Z 
01:0002EC38 ?fileExists_errorCode@file@@SAXPBUhResult@@@Z 
01:0002EC58 ?hideUnicodeSignature@file@@SAXQAEPBUbyteCount@@PAPAXAAU2@@Z 
01:0002ECDC ?_setDestination@file@@SAXPB_W0PAPB_W@Z 
01:0002ED34 ?_toApiAttributes@file@@SAXPAU?$__packedList_struct@UfileAttributeAtom@@@@PAI@Z 
01:0002ED5C ?checkOnLegal@file@@SAXI@Z 
01:0002ED90 ?_mixAttributes@file@@SAXPAUboolean_struct@_builtIn@@IIPAI@Z 
01:0002EDDC ?checkFileHandle@file@@SAXPBUfileHandle@@PB_W@Z 
01:0002EE0C ?_getStreamCheckUnicode@file@@SAXPB_WPAUboolean_struct@_builtIn@@PAPAVoutputStream@@@@Z  (Idle)
01:0002EE34 ?save@file@@SAXPB_WPBUfactDB@@@Z  (Idle)
01:0002EE48 ?save@file@@SAXPB_WPBUfactDB@@PAUboolean_struct@_builtIn@@@Z 
01:0002EED0 ?saveUtf8@file@@SAXPB_WPBUfactDB@@@Z  (Idle)
01:0002EF58 ?_checkSignature@file@@SAXQAVinputStream@@@PAPAUboolean_struct@_builtIn@@@Z  (Idle)
01:0002F0BC ?consult@file@@SAXPB_WPBUfactDB@@@Z 
01:0002F0DC ?consult@file@@SAXPB_WPBUfactDB@@PAPAUboolean_struct@_builtIn@@@Z 
01:0002F178 ?reconsult@file@@SAXPB_WPBUfactDB@@@Z  (Idle)
01:0002F198 ?reconsult@file@@SAXPB_WPBUfactDB@@PAPAUboolean_struct@_builtIn@@@Z 
01:0002F1AC ?_trySearchFileInPath@file@@SAXPB_WPAPB_W@Z  (Idle)
01:0002F1F0 ?writeCodedString@file@@SAXPB_W0PBUcodePage@@@Z  (Idle)
01:0002F1F8 ?deleteDirectory@directory@@SAXPB_W@Z  (Idle)
01:0002F200 ?makeDirectory@directory@@SAXPB_W@Z  (Idle)
01:0002F214 ?makeDirectoryPath@directory@@SAXPB_W@Z  (Idle)
01:0002F28C ?setCurrentDirectory@directory@@SAXPB_W@Z  (Idle)
01:0002F294 ?_getCurrentDirectory@directory@@SAXPAPB_W@Z 
01:0002F29C ?moveDirectory@directory@@SAXPB_W0@Z  (Idle)
01:0002F2A4 ?setVolumeLabel@directory@@SAXPB_W0@Z  (Idle)
01:0002F2AC ?existDirectory@directory@@SAXPB_W@Z 
01:0002F3FC ?existExactDirectory@directory@@SAXPB_W@Z 
01:0002F42C ?isFirst@directory@@SAXPBUsearchHandle@fileSystem_native@@PAUwin32_find_data_struct@3@@Z  (Idle)
01:0002F4D0 ?isEmpty@directory@@SAXPB_W@Z  (Idle)
01:0002F6E8 ?_dirWithoutBackslash@directory@@SAXPB_WPAPB_W@Z 
01:0002F734 ?getDirectoryProperties@directory@@SAXPB_WPAPAU?$__packedList_struct@UfileAttributeAtom@@@@PAAAUgmtTimeValue@@22@Z  (Idle)
01:0002F75C ?getVolumeProperties@directory@@SAXPB_WPAPAUvolumeType_struct@1@PAAAUfileSize@fileSystem_api@@2PAPB_WPAI@Z  (Idle)
01:0002F7B4 ?_tryGetLogicalDirectory@directory@@SAXPBUdirectoryID@@PAPB_W@Z  (Idle)
01:0002F7D0 ?_getLogicalDirectory@directory@@SAXPBUdirectoryID@@PAPB_W@Z  (Idle)
01:0002F7EC ?_getTemporaryDirectory@directory@@SAXPAPB_W@Z  (Idle)
01:0002F7F4 ?_tryCreateLogicalDirectory@directory@@SAXPBUdirectoryID@@PAPB_W@Z  (Idle)
01:0002F810 ?_getFilesInDirectory_nd@directory@@SAXPB_WPAPB_W@Z  (Idle)
01:0002F830 ?_getFilesInDirectory_nd@directory@@SAXPB_W0PAPB_W@Z 
01:0002F84C ?_getFilesInDirectory_nd@directory@@SAXPB_W0PAUboolean_struct@_builtIn@@PAPB_W@Z 
01:0002F874 ?_getSubDirectories_nd@directory@@SAXPB_WPAPB_W@Z  (Idle)
01:0002F894 ?_getSubDirectories_nd@directory@@SAXPB_W0PAPB_W@Z 
01:0002F8B8 ?_getAllSubDirectories_nd@directory@@SAXPB_WPAPB_W@Z  (Idle)
01:0002F920 ?_getFilesInDirectoryAndSub_nd@directory@@SAXPB_WPAPB_W@Z  (Idle)
01:0002F940 ?_getFilesInDirectoryAndSub_nd@directory@@SAXPB_W0PAPB_W@Z 
01:0002F9CC ?_find@directory@@SAXPB_W0IPAUboolean_struct@_builtIn@@PAPB_W@Z 
01:0002FB34 ?_dirWithBackslash@directory@@SAXPB_WPAPB_W@Z 
01:0002FBB0 ?checkHiddenOrSystem@directory@@SAXPB_WPAUboolean_struct@_builtIn@@@Z 
01:0002FBC8 ?isNotHiddenOrSystem@directory@@SAXPB_W@Z 
01:0002FBF0 ?isSlash@directory@@SAX_W@Z 
01:0002FC10 ?findNext@directory@@SAXPBUsearchHandle@fileSystem_native@@PAUwin32_find_data_struct@3@I@Z 
01:0002FC98 ?_findNext_nd@directory@@SAXPBUsearchHandle@fileSystem_native@@PAUwin32_find_data_struct@3@IPAPB_W@Z 
01:0002FDA0 ?_createFullName@directory@@SAXPB_W0PAPB_W@Z 
01:0002FE4C ?_tryLogicalDirectoryBuff@directory@@SAXPBUdirectoryId@1@PAUboolean_struct@_builtIn@@PB_WPAPB_W@Z  (Idle)
01:0002FFA4 ?_logicalDirectoryBuff@directory@@SAXPBUdirectoryId@1@PAUboolean_struct@_builtIn@@PB_WPAPB_W@Z  (Idle)
01:000301B8 ?_tryLogicalDirectory@directory@@SAXPBUdirectoryId@1@PAUboolean_struct@_builtIn@@PAPB_W@Z 
01:000301F0 ?_logicalDirectory@directory@@SAXPBUdirectoryId@1@PAUboolean_struct@_builtIn@@PAPB_W@Z 
01:00030228 ?_addNeedCreateIfNecessary@directory@@SAXPBUdirectoryId@1@PAUboolean_struct@_builtIn@@AAU21@@Z 
01:00030258 ?_convertToVolumeType@directory@@SAXHPAPAUvolumeType_struct@1@@Z 
01:000302D8 ?_browseForFolder@directory@@SAXPBUhwnd@@PB_W1PAUboolean_struct@_builtIn@@PAPB_W@Z  (Idle)
01:0003037C ?_getBrowseForFolderFlags@directory@@SAXPAUboolean_struct@_builtIn@@PAI@Z 
01:000303A0 ?browseForFolderCallback@directory@@SGHPBUhwnd@@IPBUlParam@@2@Z 
01:000303D8 ?copyDirectory@directory@@SAXPB_W0PAUboolean_struct@_builtIn@@@Z  (Idle)
01:0003042C ?copyDir@directory@@SAXPB_W0PAUboolean_struct@_builtIn@@@Z 
01:00030550 ?forAllFiles@directory@@SAXPB_WX@Z  (Idle)
01:00030570 ?forAllFiles@directory@@SAXPB_WX0PAUboolean_struct@_builtIn@@@Z 
01:00030814 outputStream_file?_initObject@@@QAGXQAV1@H@Z 
01:00030848 ?@create_object@outputStream_file@@SGQAV1@@XZ 
01:00030864 outputStream_file?_InternalFinalizer@@@QAGXQAV1@@Z 
01:0003087C messageFile?_initObject@@@QAGXQAV1@H@Z 
01:0003089C ?@create_object@messageFile@@SGQAV1@@XZ 
01:000308B8 messageFile?_InternalFinalizer@@@QAGXQAV1@@Z 
01:00030B50 inputStream_file?_initObject@@@QAGXQAV1@H@Z 
01:00030B84 ?@create_object@inputStream_file@@SGQAV1@@XZ 
01:00030BA0 inputStream_file?_InternalFinalizer@@@QAGXQAV1@@Z 
--- From 'Obj\list.50589F40.obj'
01:00030BB0 ?_anonymous$c0$1$comparelexically/1nf$list@1@SAXPAUanonymous$c0$1$comparelexically/1nf$listc_struct@1@PAU?$__packedList_struct@PAX@@1PAPAUcompareResult_struct@_builtIn@@@Z 
01:00030C08 ?_compareLexically@list@@SAXQAVrTypeLibrary@TypeLibraries@RunTime@VIP@@0XPAX@Z  (Idle)
01:00030C48 ?_compareLexically@list@@SAXQAVrTypeLibrary@TypeLibraries@RunTime@VIP@@0XPAU?$__packedList_struct@PAX@@3PAPAUcompareResult_struct@_builtIn@@@Z 
01:00030CEC ?_length2@list@@SAXQAVrTypeLibrary@TypeLibraries@RunTime@VIP@@PAU?$__packedList_struct@PAX@@PBUpositive@@AAU2@@Z  (Idle)
--- From 'Obj\string.C639126F.obj'
01:00030D24 ?_length@list@@SAXQAVrTypeLibrary@TypeLibraries@RunTime@VIP@@PAU?$__packedList_struct@PAX@@AAUpositive@@@Z 
--- From 'Obj\list.50589F40.obj'
01:00030D3C ?isMember@list@@SAXQAVrTypeLibrary@TypeLibraries@RunTime@VIP@@PAXPAU?$__packedList_struct@PAX@@@Z  (Idle)
01:00030D90 ?isMemberEq@list@@SAXQAVrTypeLibrary@TypeLibraries@RunTime@VIP@@0XPAXPAU?$__packedList_struct@PAX@@@Z  (Idle)
01:00030DF4 ?isMemberBy@list@@SAXQAVrTypeLibrary@TypeLibraries@RunTime@VIP@@0XPAXPAU?$__packedList_struct@PAX@@@Z  (Idle)
01:00030E20 ?anonymous$c0$1$comp2eq/1nf$list@1@SAXPAUanonymous$c0$1$comp2eq/1nf$listc_struct@1@PAXPAX@Z 
01:00030E60 ?_comp2eq@list@@SAXQAVrTypeLibrary@TypeLibraries@RunTime@VIP@@0XPAX@Z 
01:00030EA0 ?_tryGetMemberBy@list@@SAXQAVrTypeLibrary@TypeLibraries@RunTime@VIP@@0XPAXPAU?$__packedList_struct@PAX@@PAPAX@Z  (Idle)
01:00030EC8 ?_tryGetMemberEq@list@@SAXQAVrTypeLibrary@TypeLibraries@RunTime@VIP@@0XPAXPAU?$__packedList_struct@PAX@@PAPAX@Z 
01:00030F30 ?_getMember_nd@list@@SAXQAVrTypeLibrary@TypeLibraries@RunTime@VIP@@PAU?$__packedList_struct@PAX@@PAPAX@Z  (Idle)
01:00030F74 ?_getTupleMember_nd@list@@SAXQAVrTypeLibrary@TypeLibraries@RunTime@VIP@@0PAUtuple_struct@core@@PAU?$__packedList_struct@PAX@@PAU?$__packedList_struct@PAX@@PAPAU23@PAPAXPAPAX@Z  (Idle)
01:00030FA8 ?memberIndexAcc_nd@list@@SAXQAVrTypeLibrary@TypeLibraries@RunTime@VIP@@PAPAXAAUpositive@@PAU?$__packedList_struct@PAX@@PBU2@@Z  (Idle)
01:00031008 ?memberIndex_nd@list@@SAXQAVrTypeLibrary@TypeLibraries@RunTime@VIP@@PAPAXAAUpositive@@PAU?$__packedList_struct@PAX@@@Z  (Idle)
01:00031018 ?_zipHead_nd@list@@SAXQAVrTypeLibrary@TypeLibraries@RunTime@VIP@@0PAU?$__packedList_struct@PAX@@2PAPAUtuple_struct@core@@PAPAXPAPAX@Z  (Idle)
01:000310A4 ?_zip_nd@list@@SAXQAVrTypeLibrary@TypeLibraries@RunTime@VIP@@0PAU?$__packedList_struct@PAX@@2PAPAUtuple_struct@core@@PAPAXPAPAX@Z 
01:00031154 ?_zip_nd@list@@SAXQAVrTypeLibrary@TypeLibraries@RunTime@VIP@@00PAU?$__packedList_struct@PAX@@33PAPAUtuple_struct@core@@PAPAXPAPAXPAPAX@Z  (Idle)
01:0003128C ?_zip_nd@list@@SAXQAVrTypeLibrary@TypeLibraries@RunTime@VIP@@000PAU?$__packedList_struct@PAX@@444PAPAUtuple_struct@core@@PAPAXPAPAXPAPAXPAPAX@Z  (Idle)
01:000314B8 ?_zip_nd@list@@SAXQAVrTypeLibrary@TypeLibraries@RunTime@VIP@@0000PAU?$__packedList_struct@PAX@@5555PAPAUtuple_struct@core@@PAPAXPAPAXPAPAXPAPAXPAPAX@Z  (Idle)
01:0003175C ?_zip_nd@list@@SAXQAVrTypeLibrary@TypeLibraries@RunTime@VIP@@00000PAU?$__packedList_struct@PAX@@66666PAPAUtuple_struct@core@@PAPAXPAPAXPAPAXPAPAXPAPAXPAPAX@Z  (Idle)
01:00031A74 ?_zip_nd@list@@SAXQAVrTypeLibrary@TypeLibraries@RunTime@VIP@@000000PAU?$__packedList_struct@PAX@@777777PAPAUtuple_struct@core@@PAPAXPAPAXPAPAXPAPAXPAPAXPAPAXPAPAX@Z  (Idle)
01:00031E04 ?_zip_nd@list@@SAXQAVrTypeLibrary@TypeLibraries@RunTime@VIP@@0000000PAU?$__packedList_struct@PAX@@8888888PAPAUtuple_struct@core@@PAPAXPAPAXPAPAXPAPAXPAPAXPAPAXPAPAXPAPAX@Z  (Idle)
01:00032228 ?_zip_nd@list@@SAXQAVrTypeLibrary@TypeLibraries@RunTime@VIP@@00000000PAU?$__packedList_struct@PAX@@99999999PAPAUtuple_struct@core@@PAPAXPAPAXPAPAXPAPAXPAPAXPAPAXPAPAXPAPAXPAPAX@Z  (Idle)
01:000326D8 ?_zip_nd@list@@SAXQAVrTypeLibrary@TypeLibraries@RunTime@VIP@@000000000PAU?$__packedList_struct@PAX@@101010101010101010PAPAUtuple_struct@core@@PAPAXPAPAXPAPAXPAPAXPAPAXPAPAXPAPAXPAPAXPAPAXPAPAX@Z  (Idle)
01:00032C18 ?_zip_nd@list@@SAXQAVrTypeLibrary@TypeLibraries@RunTime@VIP@@0000000000PAU?$__packedList_struct@PAX@@11111111111111111111PAPAUtuple_struct@core@@PAPAXPAPAXPAPAXPAPAXPAPAXPAPAXPAPAXPAPAXPAPAXPAPAXPAPAX@Z  (Idle)
01:000331EC ?_zip_nd@list@@SAXQAVrTypeLibrary@TypeLibraries@RunTime@VIP@@00000000000PAU?$__packedList_struct@PAX@@1212121212121212121212PAPAUtuple_struct@core@@PAPAXPAPAXPAPAXPAPAXPAPAXPAPAXPAPAXPAPAXPAPAXPAPAXPAPAXPAPAX@Z  (Idle)
01:00033860 ?_zipWith@list@@SAXQAVrTypeLibrary@TypeLibraries@RunTime@VIP@@00XPAU?$__packedList_struct@PAX@@4PAPAU?$__packedList_struct@PAPAX@@@Z  (Idle)
01:000338F4 ?_zip@list@@SAXQAVrTypeLibrary@TypeLibraries@RunTime@VIP@@0PAU?$__packedList_struct@PAX@@2PAPAU?$__packedList_struct@PAPAUtuple_struct@core@@PAPAXPAPAX@@@Z  (Idle)
01:00033960 ?_zip@list@@SAXQAVrTypeLibrary@TypeLibraries@RunTime@VIP@@00PAU?$__packedList_struct@PAX@@33PAPAU?$__packedList_struct@PAPAUtuple_struct@core@@PAPAXPAPAXPAPAX@@@Z  (Idle)
01:000339D4 ?_zip@list@@SAXQAVrTypeLibrary@TypeLibraries@RunTime@VIP@@000PAU?$__packedList_struct@PAX@@444PAPAU?$__packedList_struct@PAPAUtuple_struct@core@@PAPAXPAPAXPAPAXPAPAX@@@Z  (Idle)
01:00033A4C ?_zip@list@@SAXQAVrTypeLibrary@TypeLibraries@RunTime@VIP@@0000PAU?$__packedList_struct@PAX@@5555PAPAU?$__packedList_struct@PAPAUtuple_struct@core@@PAPAXPAPAXPAPAXPAPAXPAPAX@@@Z  (Idle)
01:00033ACC ?_zip@list@@SAXQAVrTypeLibrary@TypeLibraries@RunTime@VIP@@00000PAU?$__packedList_struct@PAX@@66666PAPAU?$__packedList_struct@PAPAUtuple_struct@core@@PAPAXPAPAXPAPAXPAPAXPAPAXPAPAX@@@Z  (Idle)
01:00033B50 ?_zip@list@@SAXQAVrTypeLibrary@TypeLibraries@RunTime@VIP@@000000PAU?$__packedList_struct@PAX@@777777PAPAU?$__packedList_struct@PAPAUtuple_struct@core@@PAPAXPAPAXPAPAXPAPAXPAPAXPAPAXPAPAX@@@Z  (Idle)
01:00033BDC ?_zip@list@@SAXQAVrTypeLibrary@TypeLibraries@RunTime@VIP@@0000000PAU?$__packedList_struct@PAX@@8888888PAPAU?$__packedList_struct@PAPAUtuple_struct@core@@PAPAXPAPAXPAPAXPAPAXPAPAXPAPAXPAPAXPAPAX@@@Z  (Idle)
01:00033C6C ?_zip@list@@SAXQAVrTypeLibrary@TypeLibraries@RunTime@VIP@@00000000PAU?$__packedList_struct@PAX@@99999999PAPAU?$__packedList_struct@PAPAUtuple_struct@core@@PAPAXPAPAXPAPAXPAPAXPAPAXPAPAXPAPAXPAPAXPAPAX@@@Z  (Idle)
01:00033D04 ?_zip@list@@SAXQAVrTypeLibrary@TypeLibraries@RunTime@VIP@@000000000PAU?$__packedList_struct@PAX@@101010101010101010PAPAU?$__packedList_struct@PAPAUtuple_struct@core@@PAPAXPAPAXPAPAXPAPAXPAPAXPAPAXPAPAXPAPAXPAPAXPAPAX@@@Z  (Idle)
01:00033DA0 ?_zip@list@@SAXQAVrTypeLibrary@TypeLibraries@RunTime@VIP@@0000000000PAU?$__packedList_struct@PAX@@11111111111111111111PAPAU?$__packedList_struct@PAPAUtuple_struct@core@@PAPAXPAPAXPAPAXPAPAXPAPAXPAPAXPAPAXPAPAXPAPAXPAPAXPAPAX@@@Z  (Idle)
01:00033E44 ?_zip@list@@SAXQAVrTypeLibrary@TypeLibraries@RunTime@VIP@@00000000000PAU?$__packedList_struct@PAX@@1212121212121212121212PAPAU?$__packedList_struct@PAPAUtuple_struct@core@@PAPAXPAPAXPAPAXPAPAXPAPAXPAPAXPAPAXPAPAXPAPAXPAPAXPAPAXPAPAX@@@Z  (Idle)
01:00033EEC ?unzip@list@@SAXQAVrTypeLibrary@TypeLibraries@RunTime@VIP@@0PAU?$__packedList_struct@PAUtuple_struct@core@@PAXPAX@@PAPAU?$__packedList_struct@PAPAX@@3@Z  (Idle)
01:00033F7C ?unzip@list@@SAXQAVrTypeLibrary@TypeLibraries@RunTime@VIP@@00PAU?$__packedList_struct@PAUtuple_struct@core@@PAXPAXPAX@@PAPAU?$__packedList_struct@PAPAX@@44@Z  (Idle)
01:00034044 ?unzip@list@@SAXQAVrTypeLibrary@TypeLibraries@RunTime@VIP@@000PAU?$__packedList_struct@PAUtuple_struct@core@@PAXPAXPAXPAX@@PAPAU?$__packedList_struct@PAPAX@@555@Z  (Idle)
01:00034140 ?unzip@list@@SAXQAVrTypeLibrary@TypeLibraries@RunTime@VIP@@0000PAU?$__packedList_struct@PAUtuple_struct@core@@PAXPAXPAXPAXPAX@@PAPAU?$__packedList_struct@PAPAX@@6666@Z  (Idle)
01:00034274 ?unzip@list@@SAXQAVrTypeLibrary@TypeLibraries@RunTime@VIP@@00000PAU?$__packedList_struct@PAUtuple_struct@core@@PAXPAXPAXPAXPAXPAX@@PAPAU?$__packedList_struct@PAPAX@@77777@Z  (Idle)
01:000343DC ?unzip@list@@SAXQAVrTypeLibrary@TypeLibraries@RunTime@VIP@@000000PAU?$__packedList_struct@PAUtuple_struct@core@@PAXPAXPAXPAXPAXPAXPAX@@PAPAU?$__packedList_struct@PAPAX@@888888@Z  (Idle)
01:0003457C ?unzip@list@@SAXQAVrTypeLibrary@TypeLibraries@RunTime@VIP@@0000000PAU?$__packedList_struct@PAUtuple_struct@core@@PAXPAXPAXPAXPAXPAXPAXPAX@@PAPAU?$__packedList_struct@PAPAX@@9999999@Z  (Idle)
01:0003475C ?unzip@list@@SAXQAVrTypeLibrary@TypeLibraries@RunTime@VIP@@00000000PAU?$__packedList_struct@PAUtuple_struct@core@@PAXPAXPAXPAXPAXPAXPAXPAXPAX@@PAPAU?$__packedList_struct@PAPAX@@1010101010101010@Z  (Idle)
01:0003498C ?unzip@list@@SAXQAVrTypeLibrary@TypeLibraries@RunTime@VIP@@000000000PAU?$__packedList_struct@PAUtuple_struct@core@@PAXPAXPAXPAXPAXPAXPAXPAXPAXPAX@@PAPAU?$__packedList_struct@PAPAX@@111111111111111111@Z  (Idle)
01:00034C28 ?unzip@list@@SAXQAVrTypeLibrary@TypeLibraries@RunTime@VIP@@0000000000PAU?$__packedList_struct@PAUtuple_struct@core@@PAXPAXPAXPAXPAXPAXPAXPAXPAXPAXPAX@@PAPAU?$__packedList_struct@PAPAX@@12121212121212121212@Z  (Idle)
01:00034F14 ?unzip@list@@SAXQAVrTypeLibrary@TypeLibraries@RunTime@VIP@@00000000000PAU?$__packedList_struct@PAUtuple_struct@core@@PAXPAXPAXPAXPAXPAXPAXPAXPAXPAXPAXPAX@@PAPAU?$__packedList_struct@PAPAX@@1313131313131313131313@Z  (Idle)
01:00035250 ?_anonymous$c0$1$sortby/3nf$list@1@SAXPAUanonymous$c0$1$sortby/3nf$listc_struct@1@PAXPAXPAPAUcompareResult_struct@_builtIn@@@Z 
01:00035280 ?_sortBy@list@@SAXQAVrTypeLibrary@TypeLibraries@RunTime@VIP@@XPAU?$__packedList_struct@PAX@@PAUsortOrder_struct@core@@PAPAU?$__packedList_struct@PAPAX@@@Z  (Idle)
01:000352DC ?_sortBy@list@@SAXQAVrTypeLibrary@TypeLibraries@RunTime@VIP@@XPAU?$__packedList_struct@PAX@@PAPAU?$__packedList_struct@PAPAX@@@Z 
01:00035308 ?_anonymous$c0$1$sort/1$list@1@SAXPAUanonymous$c0$1$sort/1$listc_struct@1@PAXPAXPAPAUcompareResult_struct@_builtIn@@@Z 
01:00035320 ?_sort@list@@SAXQAVrTypeLibrary@TypeLibraries@RunTime@VIP@@PAU?$__packedList_struct@PAX@@PAPAU?$__packedList_struct@PAPAX@@@Z  (Idle)
01:0003536C ?_anonymous$c0$1$sort/2nf$list@1@SAXPAUanonymous$c0$1$sort/2nf$listc_struct@1@PAXPAXPAPAUcompareResult_struct@_builtIn@@@Z 
01:000353A0 ?_sort@list@@SAXQAVrTypeLibrary@TypeLibraries@RunTime@VIP@@PAU?$__packedList_struct@PAX@@PAUsortOrder_struct@core@@PAPAU?$__packedList_struct@PAPAX@@@Z  (Idle)
01:00035408 ?_merge@list@@SAXQAVrTypeLibrary@TypeLibraries@RunTime@VIP@@XPAU?$__packedList_struct@PAU?$__packedList_struct@PAX@@@@PAPAU?$__packedList_struct@PAPAX@@@Z 
01:00035484 ?mergeL@list@@SAXQAVrTypeLibrary@TypeLibraries@RunTime@VIP@@XPAU?$__packedList_struct@PAU?$__packedList_struct@PAX@@@@PAPAU?$__packedList_struct@PAPAU?$__packedList_struct@PAPAX@@@@@Z 
01:0003550C ?_merge2@list@@SAXQAVrTypeLibrary@TypeLibraries@RunTime@VIP@@XPAU?$__packedList_struct@PAX@@2PAPAU?$__packedList_struct@PAPAX@@@Z 
01:000355F4 ?_mkRuns@list@@SAXQAVrTypeLibrary@TypeLibraries@RunTime@VIP@@XPAU?$__packedList_struct@PAX@@PAPAU?$__packedList_struct@PAPAU?$__packedList_struct@PAPAX@@@@@Z 
01:00035704 ?takeRun@list@@SAXQAVrTypeLibrary@TypeLibraries@RunTime@VIP@@XPAXPAU?$__packedList_struct@PAX@@PAPAU?$__packedList_struct@PAPAX@@4@Z 
01:000357E0 ?takeRunDown@list@@SAXQAVrTypeLibrary@TypeLibraries@RunTime@VIP@@XPAXPAU?$__packedList_struct@PAX@@3PAPAU?$__packedList_struct@PAPAX@@5@Z 
01:000358AC ?_append@list@@SAXQAVrTypeLibrary@TypeLibraries@RunTime@VIP@@PAU?$__packedList_struct@PAX@@1PAPAU?$__packedList_struct@PAPAX@@@Z  (Idle)
01:000358CC ?_append1@list@@SAXQAVrTypeLibrary@TypeLibraries@RunTime@VIP@@PAU?$__packedList_struct@PAX@@1PAPAU?$__packedList_struct@PAPAX@@@Z 
01:0003592C ?_append@list@@SAXQAVrTypeLibrary@TypeLibraries@RunTime@VIP@@PAU?$__packedList_struct@PAX@@11PAPAU?$__packedList_struct@PAPAX@@@Z  (Idle)
01:00035960 ?_append@list@@SAXQAVrTypeLibrary@TypeLibraries@RunTime@VIP@@PAU?$__packedList_struct@PAX@@111PAPAU?$__packedList_struct@PAPAX@@@Z  (Idle)
01:00035990 ?_append@list@@SAXQAVrTypeLibrary@TypeLibraries@RunTime@VIP@@PAU?$__packedList_struct@PAX@@1111PAPAU?$__packedList_struct@PAPAX@@@Z  (Idle)
01:000359C0 ?_appendList@list@@SAXQAVrTypeLibrary@TypeLibraries@RunTime@VIP@@PAU?$__packedList_struct@PAU?$__packedList_struct@PAX@@@@PAPAU?$__packedList_struct@PAPAX@@@Z  (Idle)
01:00035A34 ?_reverse@list@@SAXQAVrTypeLibrary@TypeLibraries@RunTime@VIP@@PAU?$__packedList_struct@PAX@@PAPAU?$__packedList_struct@PAPAX@@@Z 
01:00035A5C ?_reverse1@list@@SAXQAVrTypeLibrary@TypeLibraries@RunTime@VIP@@PAU?$__packedList_struct@PAX@@1PAPAU?$__packedList_struct@PAPAX@@@Z 
01:00035AAC ?_remove@list@@SAXQAVrTypeLibrary@TypeLibraries@RunTime@VIP@@PAU?$__packedList_struct@PAX@@PAXPAPAU?$__packedList_struct@PAPAX@@@Z  (Idle)
01:00035B3C ?_removeBy@list@@SAXQAVrTypeLibrary@TypeLibraries@RunTime@VIP@@0XPAU?$__packedList_struct@PAX@@PAXPAPAU?$__packedList_struct@PAPAX@@@Z  (Idle)
01:00035B68 ?_removeEq@list@@SAXQAVrTypeLibrary@TypeLibraries@RunTime@VIP@@0XPAU?$__packedList_struct@PAX@@PAXPAPAU?$__packedList_struct@PAPAX@@@Z 
01:00035C0C ?_removeAll@list@@SAXQAVrTypeLibrary@TypeLibraries@RunTime@VIP@@PAU?$__packedList_struct@PAX@@PAXPAPAU?$__packedList_struct@PAPAX@@@Z  (Idle)
01:00035CA8 ?_removeAllBy@list@@SAXQAVrTypeLibrary@TypeLibraries@RunTime@VIP@@0XPAU?$__packedList_struct@PAX@@PAXPAPAU?$__packedList_struct@PAPAX@@@Z  (Idle)
01:00035CD4 ?_removeAllEq@list@@SAXQAVrTypeLibrary@TypeLibraries@RunTime@VIP@@0XPAU?$__packedList_struct@PAX@@PAXPAPAU?$__packedList_struct@PAPAX@@@Z 
01:00035D78 ?_removeDuplicates@list@@SAXQAVrTypeLibrary@TypeLibraries@RunTime@VIP@@PAU?$__packedList_struct@PAX@@PAPAU?$__packedList_struct@PAPAX@@@Z  (Idle)
01:00035DAC ?_removeDuplicatesBy@list@@SAXQAVrTypeLibrary@TypeLibraries@RunTime@VIP@@XPAU?$__packedList_struct@PAX@@PAPAU?$__packedList_struct@PAPAX@@@Z  (Idle)
01:00035DE0 ?_removeDuplicates1@list@@SAXQAVrTypeLibrary@TypeLibraries@RunTime@VIP@@PAU?$__packedList_struct@PAX@@QAVsetM@@@PAXPAPAU?$__packedList_struct@PAPAX@@@Z 
01:00035EB4 ?_removeDuplicatesEq@list@@SAXQAVrTypeLibrary@TypeLibraries@RunTime@VIP@@XPAU?$__packedList_struct@PAX@@PAPAU?$__packedList_struct@PAPAX@@@Z  (Idle)
01:00035F54 ?_anonymous$c0$1$removeConsecutiveDuplicates/1$list@1@SAXPAUanonymous$c0$1$removeConsecutiveDuplicates/1$listc_struct@1@PAXPAXPAPAUcompareResult_struct@_builtIn@@@Z 
01:00035F6C ?_removeConsecutiveDuplicates@list@@SAXQAVrTypeLibrary@TypeLibraries@RunTime@VIP@@PAU?$__packedList_struct@PAX@@PAPAU?$__packedList_struct@PAPAX@@@Z  (Idle)
01:00035FB8 ?_removeConsecutiveDuplicatesEq@list@@SAXQAVrTypeLibrary@TypeLibraries@RunTime@VIP@@XPAU?$__packedList_struct@PAX@@PAPAU?$__packedList_struct@PAPAX@@@Z  (Idle)
01:00036084 ?_removeConsecutiveDuplicatesBy@list@@SAXQAVrTypeLibrary@TypeLibraries@RunTime@VIP@@XPAU?$__packedList_struct@PAX@@PAPAU?$__packedList_struct@PAPAX@@@Z 
01:0003614C ?_difference@list@@SAXQAVrTypeLibrary@TypeLibraries@RunTime@VIP@@PAU?$__packedList_struct@PAX@@1PAPAU?$__packedList_struct@PAPAX@@@Z  (Idle)
01:000361F0 ?_differenceBy@list@@SAXQAVrTypeLibrary@TypeLibraries@RunTime@VIP@@0XPAU?$__packedList_struct@PAX@@3PAPAU?$__packedList_struct@PAPAX@@@Z  (Idle)
01:0003621C ?_differenceEq@list@@SAXQAVrTypeLibrary@TypeLibraries@RunTime@VIP@@0XPAU?$__packedList_struct@PAX@@3PAPAU?$__packedList_struct@PAPAX@@@Z 
01:000362C8 ?_nDuplicates@list@@SAXQAVrTypeLibrary@TypeLibraries@RunTime@VIP@@PAXPBUpositive@@PAPAU?$__packedList_struct@PAPAX@@@Z  (Idle)
01:00036318 ?_tryGetIndex@list@@SAXQAVrTypeLibrary@TypeLibraries@RunTime@VIP@@PAXPAU?$__packedList_struct@PAX@@AAUpositive@@@Z  (Idle)
01:00036334 ?_tryGetIndex@list@@SAXQAVrTypeLibrary@TypeLibraries@RunTime@VIP@@PAXPAU?$__packedList_struct@PAX@@PBUpositive@@AAU2@@Z 
01:0003639C ?_tryGetIndexBy@list@@SAXQAVrTypeLibrary@TypeLibraries@RunTime@VIP@@0XPAXPAU?$__packedList_struct@PAX@@AAUpositive@@@Z  (Idle)
01:000363EC ?_tryGetIndexEq@list@@SAXQAVrTypeLibrary@TypeLibraries@RunTime@VIP@@0XPAXPAU?$__packedList_struct@PAX@@AAUpositive@@@Z  (Idle)
01:00036408 ?_tryGetIndexEq@list@@SAXQAVrTypeLibrary@TypeLibraries@RunTime@VIP@@0XPAXPAU?$__packedList_struct@PAX@@PBUpositive@@AAU2@@Z 
01:00036484 ?_tryGetLast@list@@SAXQAVrTypeLibrary@TypeLibraries@RunTime@VIP@@PAU?$__packedList_struct@PAX@@PAPAX@Z  (Idle)
--- From 'Obj\string.C639126F.obj'
01:000364C4 ?_nth@list@@SAXQAVrTypeLibrary@TypeLibraries@RunTime@VIP@@PBUpositive@@PAU?$__packedList_struct@PAX@@PAPAX@Z 
--- From 'Obj\list.50589F40.obj'
01:00036534 ?_tryGetNth@list@@SAXQAVrTypeLibrary@TypeLibraries@RunTime@VIP@@PBUpositive@@PAU?$__packedList_struct@PAX@@PAPAX@Z 
01:00036598 ?setNth@list@@SAXQAVrTypeLibrary@TypeLibraries@RunTime@VIP@@PBUpositive@@PAU?$__packedList_struct@PAX@@PAXPAPAU?$__packedList_struct@PAPAX@@@Z  (Idle)
01:0003668C ?split@list@@SAXQAVrTypeLibrary@TypeLibraries@RunTime@VIP@@PBUpositive@@PAU?$__packedList_struct@PAX@@PAPAU?$__packedList_struct@PAPAX@@3@Z  (Idle)
01:00036734 ?_take@list@@SAXQAVrTypeLibrary@TypeLibraries@RunTime@VIP@@PBUpositive@@PAU?$__packedList_struct@PAX@@PAPAU?$__packedList_struct@PAPAX@@@Z  (Idle)
01:00036758 ?_drop@list@@SAXQAVrTypeLibrary@TypeLibraries@RunTime@VIP@@PBUpositive@@PAU?$__packedList_struct@PAX@@PAPAU?$__packedList_struct@PAPAX@@@Z  (Idle)
01:000367B0 ?splitAfter@list@@SAXQAVrTypeLibrary@TypeLibraries@RunTime@VIP@@XPAU?$__packedList_struct@PAX@@PAPAU?$__packedList_struct@PAPAX@@3@Z  (Idle)
01:00036880 ?_anonymous$c0$1$splitafter/2nf$list@1@SAXPAUanonymous$c0$1$splitafter/2nf$listc_struct@1@PAU?$__packedList_struct@PAX@@PAPAUtuple_struct@core@@PAPAU?$__packedList_struct@PAPAX@@PAPAU?$__packedList_struct@PAPAX@@@Z 
01:00036900 ?_splitAfter@list@@SAXQAVrTypeLibrary@TypeLibraries@RunTime@VIP@@XPAU?$__packedList_struct@PAX@@PAPAU?$__packedList_struct@PAPAU?$__packedList_struct@PAPAX@@@@@Z  (Idle)
01:0003698C ?_maximumBy@list@@SAXQAVrTypeLibrary@TypeLibraries@RunTime@VIP@@XPAU?$__packedList_struct@PAX@@PAPAX@Z  (Idle)
01:000369D8 ?_anonymous$c0$1$maximum/1$list@1@SAXPAUanonymous$c0$1$maximum/1$listc_struct@1@PAXPAXPAPAUcompareResult_struct@_builtIn@@@Z 
01:000369F0 ?_maximum@list@@SAXQAVrTypeLibrary@TypeLibraries@RunTime@VIP@@PAU?$__packedList_struct@PAX@@PAPAX@Z  (Idle)
01:00036A3C ?_anonymous$c0$1$minimumby/2nf$list@1@SAXPAUanonymous$c0$1$minimumby/2nf$listc_struct@1@PAXPAXPAPAUcompareResult_struct@_builtIn@@@Z 
01:00036A6C ?_minimumBy@list@@SAXQAVrTypeLibrary@TypeLibraries@RunTime@VIP@@XPAU?$__packedList_struct@PAX@@PAPAX@Z  (Idle)
01:00036AF0 ?_anonymous$c0$1$minimum/1$list@1@SAXPAUanonymous$c0$1$minimum/1$listc_struct@1@PAXPAXPAPAUcompareResult_struct@_builtIn@@@Z 
01:00036B08 ?_minimum@list@@SAXQAVrTypeLibrary@TypeLibraries@RunTime@VIP@@PAU?$__packedList_struct@PAX@@PAPAX@Z  (Idle)
01:00036B54 ?_extremum@list@@SAXQAVrTypeLibrary@TypeLibraries@RunTime@VIP@@XPAXPAU?$__packedList_struct@PAX@@PAPAX@Z 
01:00036BC8 ?_union@list@@SAXQAVrTypeLibrary@TypeLibraries@RunTime@VIP@@PAU?$__packedList_struct@PAX@@1PAPAU?$__packedList_struct@PAPAX@@@Z  (Idle)
01:00036C6C ?_unionBy@list@@SAXQAVrTypeLibrary@TypeLibraries@RunTime@VIP@@XPAU?$__packedList_struct@PAX@@2PAPAU?$__packedList_struct@PAPAX@@@Z  (Idle)
01:00036C98 ?_unionEq@list@@SAXQAVrTypeLibrary@TypeLibraries@RunTime@VIP@@XPAU?$__packedList_struct@PAX@@2PAPAU?$__packedList_struct@PAPAX@@@Z 
01:00036D40 ?_intersection@list@@SAXQAVrTypeLibrary@TypeLibraries@RunTime@VIP@@PAU?$__packedList_struct@PAX@@1PAPAU?$__packedList_struct@PAPAX@@@Z  (Idle)
01:00036DDC ?_intersectionBy@list@@SAXQAVrTypeLibrary@TypeLibraries@RunTime@VIP@@XPAU?$__packedList_struct@PAX@@2PAPAU?$__packedList_struct@PAPAX@@@Z  (Idle)
01:00036E08 ?_intersectionEq@list@@SAXQAVrTypeLibrary@TypeLibraries@RunTime@VIP@@XPAU?$__packedList_struct@PAX@@2PAPAU?$__packedList_struct@PAPAX@@@Z 
01:00036EAC ?_filter@list@@SAXQAVrTypeLibrary@TypeLibraries@RunTime@VIP@@PAU?$__packedList_struct@PAX@@XPAPAU?$__packedList_struct@PAPAX@@@Z  (Idle)
01:00036F24 ?filter@list@@SAXQAVrTypeLibrary@TypeLibraries@RunTime@VIP@@PAU?$__packedList_struct@PAX@@XPAPAU?$__packedList_struct@PAPAX@@3@Z  (Idle)
01:00037000 ?_decompose@list@@SAXQAVrTypeLibrary@TypeLibraries@RunTime@VIP@@0PAU?$__packedList_struct@PAX@@XPAPAU?$__packedList_struct@PAPAUtuple_struct@core@@PAPAXPAPAU?$__packedList_struct@PAPAX@@@@@Z  (Idle)
01:00037198 ?_interleave@list@@SAXQAVrTypeLibrary@TypeLibraries@RunTime@VIP@@PAU?$__packedList_struct@PAX@@PAXPAPAU?$__packedList_struct@PAPAX@@@Z  (Idle)
01:00037234 ?anonymous$c0$1$groupbyeq/2nf$list@1@SAXPAUanonymous$c0$1$groupbyeq/2nf$listc_struct@1@PAX@Z 
01:00037268 ?_groupByEq@list@@SAXQAVrTypeLibrary@TypeLibraries@RunTime@VIP@@XPAU?$__packedList_struct@PAX@@PAPAU?$__packedList_struct@PAPAU?$__packedList_struct@PAPAX@@@@@Z  (Idle)
01:00037324 ?_map@list@@SAXQAVrTypeLibrary@TypeLibraries@RunTime@VIP@@0PAU?$__packedList_struct@PAX@@XPAPAU?$__packedList_struct@PAPAX@@@Z  (Idle)
01:000373A0 ?_filteredMap@list@@SAXQAVrTypeLibrary@TypeLibraries@RunTime@VIP@@0PAU?$__packedList_struct@PAX@@XPAPAU?$__packedList_struct@PAPAX@@@Z  (Idle)
01:00037424 ?_fold@list@@SAXQAVrTypeLibrary@TypeLibraries@RunTime@VIP@@0PAU?$__packedList_struct@PAX@@XPAXPAPAX@Z  (Idle)
01:00037488 ?_foldl@list@@SAXQAVrTypeLibrary@TypeLibraries@RunTime@VIP@@0PAU?$__packedList_struct@PAX@@XPAXPAPAX@Z  (Idle)
01:000374E4 ?_anonymous$c0$1$foldr/3nf$list@1@SAXPAUanonymous$c0$1$foldr/3nf$listc_struct@1@PAXPAXPAPAX@Z 
01:00037514 ?_foldr@list@@SAXQAVrTypeLibrary@TypeLibraries@RunTime@VIP@@0PAU?$__packedList_struct@PAX@@XPAXPAPAX@Z  (Idle)
01:00037574 ?_unfold@list@@SAXQAVrTypeLibrary@TypeLibraries@RunTime@VIP@@0PAXXPAPAU?$__packedList_struct@PAPAX@@@Z 
01:000375F4 ?forAll@list@@SAXQAVrTypeLibrary@TypeLibraries@RunTime@VIP@@PAU?$__packedList_struct@PAX@@X@Z  (Idle)
01:00037638 ?_exists@list@@SAXQAVrTypeLibrary@TypeLibraries@RunTime@VIP@@PAU?$__packedList_struct@PAX@@XPAPAX@Z  (Idle)
01:000376A0 ?exists@list@@SAXQAVrTypeLibrary@TypeLibraries@RunTime@VIP@@PAU?$__packedList_struct@PAX@@X@Z  (Idle)
01:000376C4 ?all@list@@SAXQAVrTypeLibrary@TypeLibraries@RunTime@VIP@@PAU?$__packedList_struct@PAX@@X@Z  (Idle)
01:00037708 ?exceptionDifferentLength_explicit@list@@SAXPAUprogramPoint_struct@core@@@Z 
01:0003773C ?exceptionEmpty_explicit@list@@SAXPAUprogramPoint_struct@core@@@Z 
--- From 'Obj\math.FC1B1006.obj'
01:00037770 ?raise_asinOutOfBounds_explicit@math_exception@@SAXPAUprogramPoint_struct@core@@PAN@Z  (Idle)
01:000377E4 ?raise_acoshOutOfBounds_explicit@math_exception@@SAXPAUprogramPoint_struct@core@@PAN@Z  (Idle)
01:00037858 ?raise_atanhOutOfBounds_explicit@math_exception@@SAXPAUprogramPoint_struct@core@@PAN@Z  (Idle)
01:000378CC ?raise_acotanhOutOfBounds_explicit@math_exception@@SAXPAUprogramPoint_struct@core@@PAN@Z  (Idle)
01:00037940 ?raise_cotanhInfinityResult_explicit@math_exception@@SAXPAUprogramPoint_struct@core@@PAN@Z  (Idle)
01:000379B4 ?isNaN@math@@SAXPAN@Z  (Idle)
01:00037A38 ?check_asin_nearBounds@math@@SAXPAPBUinCircle@@@Z  (Idle)
01:00037A7C ?_getBoundsForValue@math@@SAXPAPBUinCircle@@PAPAN@Z  (Idle)
01:00037AB0 ?_arcsin@math@@SAXPAPBUinCircle@@PAPAN@Z  (Idle)
01:00037C1C ?_sinh@math@@SAXPANPAPAN@Z  (Idle)
01:00037C98 ?_prepareResultForBigValue@math@@SAXPANPAAAUuReal@@@Z  (Idle)
01:00037E1C ?_arcsinh@math@@SAXPANPAPAN@Z  (Idle)
01:00037E70 ?_arccos@math@@SAXPAPBUinCircle@@PAPAN@Z  (Idle)
01:00037EBC ?_cosh@math@@SAXPANPAAAUuReal@@@Z  (Idle)
01:00037F50 ?_prepareResultForValue@math@@SAXPAPBUuReal@@PAAAU2@@Z  (Idle)
01:00038084 ?_arccosh@math@@SAXPAPBUuReal@@PAPAN@Z  (Idle)
01:000380FC ?_get_tanhBoundsForValue@math@@SAXPANPAAAUinCircle@@@Z  (Idle)
01:00038130 ?_tanh@math@@SAXPANPAAAUinCircle@@@Z  (Idle)
01:000381F4 ?_arctanh@math@@SAXPAPBUinCircle@@PAPAN@Z  (Idle)
01:000382B8 ?_cotanh@math@@SAXPANPAPAN@Z  (Idle)
01:00038384 ?_arccotanh@math@@SAXPANPAPAN@Z  (Idle)
01:0003844C ?_sqr@math@@SAXPANPAAAUuReal@@@Z 
01:00038488 ?_round@math@@SAXPANPAH@Z  (Idle)
01:000384C4 ?_roundToUnsigned@math@@SAXPANPAI@Z 
01:00038500 ?_roundToInteger64@math@@SAXPANPAPA_J@Z  (Idle)
01:0003855C ?_roundToUnsigned64@math@@SAXPANPAPA_K@Z  (Idle)
01:000385B8 ?_trunc@math@@SAXPANPAH@Z  (Idle)
01:000385F4 ?_fraction@math@@SAXPANPAPAN@Z  (Idle)
--- From 'Obj\string.C639126F.obj'
01:00038644 ?_ceil@math@@SAXPANPAH@Z 
--- From 'Obj\math.FC1B1006.obj'
01:0003867C ?_ceilToReal@math@@SAXPANPAPAN@Z 
01:0003872C ?_floor@math@@SAXPANPAH@Z  (Idle)
01:00038778 ?_floorToReal@math@@SAXPANPAPAN@Z  (Idle)
--- From 'Obj\string.C639126F.obj'
01:000387E0 ?_max@math@@SAXHHPAH@Z 
--- From 'Obj\math.FC1B1006.obj'
01:00038804 ?_max@math@@SAXHHHPAH@Z  (Idle)
01:0003882C ?_min@math@@SAXHHPAH@Z 
01:00038850 ?_min@math@@SAXHHHPAH@Z  (Idle)
01:00038878 ?_restrict@math@@SAXHHHPAH@Z  (Idle)
01:000388AC ?divides_dt@math@@SAXHH@Z  (Idle)
01:000388E8 ?_max@math@@SAXIIPAI@Z 
01:0003890C ?_max@math@@SAXPANPANPAPAN@Z  (Idle)
01:00038944 ?_max@math@@SAXMMPAM@Z  (Idle)
01:000389AC ?_max@math@@SAXPA_J0PAPA_J@Z  (Idle)
01:000389FC ?_max@math@@SAXPBUintegerNative@@0AAU2@@Z  (Idle)
01:00038A20 ?_max@math@@SAXPA_K0PAPA_K@Z  (Idle)
01:00038A70 ?_max@math@@SAXPBUunsignedNative@@0AAU2@@Z  (Idle)
01:00038A94 ?_max@math@@SAXIIIPAI@Z  (Idle)
01:00038AC4 ?_max@math@@SAXPANPANPANPAPAN@Z  (Idle)
01:00038AF4 ?_max@math@@SAXMMMPAM@Z  (Idle)
01:00038B30 ?_min@math@@SAXIIPAI@Z 
01:00038B54 ?_min@math@@SAXPANPANPAPAN@Z  (Idle)
01:00038B8C ?_min@math@@SAXMMPAM@Z  (Idle)
01:00038BF4 ?_min@math@@SAXPA_J0PAPA_J@Z  (Idle)
01:00038C44 ?_min@math@@SAXPBUintegerNative@@0AAU2@@Z  (Idle)
01:00038C68 ?_min@math@@SAXPA_K0PAPA_K@Z  (Idle)
01:00038CB8 ?_min@math@@SAXPBUunsignedNative@@0AAU2@@Z  (Idle)
01:00038CDC ?_min@math@@SAXIIIPAI@Z  (Idle)
01:00038D0C ?_min@math@@SAXPANPANPANPAPAN@Z  (Idle)
01:00038D3C ?_min@math@@SAXMMMPAM@Z  (Idle)
01:00038D78 ?_restrict@math@@SAXIIIPAI@Z  (Idle)
01:00038DAC ?_restrict@math@@SAXPANPANPANPAPAN@Z  (Idle)
01:00038DE0 ?divides_dt@math@@SAXII@Z  (Idle)
--- From 'Obj\memory.89ECA104.obj'
01:00038E00 ?new@weakReference@@SAXQAV1@@PAXQAVrTypeLibrary@TypeLibraries@RunTime@VIP@@PAX@Z  (Idle)
01:00038E38 ?_tryDeref@weakReference@@SAXQAV1@@PAXPAPAX@Z 
01:00038EBC ?doIfExist@weakReference@@SAXQAV1@@PAXX@Z 
01:00038F1C ?released@weakReference@@SGQAVevent0@@@PBUhandle@@QAV1@@PAX@Z 
01:00038F64 ?finalize@weakReference@@SGXQAV1@@PAX@Z 
01:00038FC0 ?_new@weakReference@@SAXQAVrTypeLibrary@TypeLibraries@RunTime@VIP@@PAXPAPAV1@@PAPAX@Z 
01:00038FF0 ?_object_typelib_initializer@weakReference@@SGXQAV1@@PAXQAVrTypeLibrary@TypeLibraries@RunTime@VIP@@@Z 
01:00039008 ?_object_facts_initializer@weakReference@@SGXQAV1@@PAX@Z 
01:00039020 ?new@weakPointer@@SAXQAV1@@PAX@Z  (Idle)
01:00039058 ?newPredicate@weakPointer@@SAXQAV1@@PAX@Z  (Idle)
01:000390E4 ?_tryDeref@weakPointer@@SAXQAV1@@PAPAX@Z 
01:00039190 ?finalize@weakPointer@@SGXQAV1@@@Z 
01:00039208 ?_new@weakPointer@@SAXPAXPAPAV1@@@Z  (Idle)
01:00039230 ?_newPredicate@weakPointer@@SAXPAXPAPAV1@@@Z  (Idle)
01:00039258 ?_object_facts_initializer@weakPointer@@SGXQAV1@@@Z 
01:00039270 ?_alloc_kind@memory@@SAXQAVrTypeLibrary@TypeLibraries@RunTime@VIP@@PAUmemoryKind_struct@1@PAPAX@Z  (Idle)
01:00039294 ?_alloc_kind@memory@@SAXQAVrTypeLibrary@TypeLibraries@RunTime@VIP@@PAUmemoryKind_struct@1@PBUcontext@@PAPAX@Z  (Idle)
01:000392BC ?_alloc@memory@@SAXQAVrTypeLibrary@TypeLibraries@RunTime@VIP@@PAPAX@Z 
01:000392E8 ?_alloc@memory@@SAXQAVrTypeLibrary@TypeLibraries@RunTime@VIP@@PBUcontext@@PAPAX@Z  (Idle)
01:00039318 ?_alloc_atomic@memory@@SAXQAVrTypeLibrary@TypeLibraries@RunTime@VIP@@PAPAX@Z 
01:00039344 ?_alloc_atomic@memory@@SAXQAVrTypeLibrary@TypeLibraries@RunTime@VIP@@PBUcontext@@PAPAX@Z 
01:00039374 ?_alloc_uncollectable@memory@@SAXQAVrTypeLibrary@TypeLibraries@RunTime@VIP@@PAPAX@Z  (Idle)
01:000393A0 ?_alloc_uncollectable@memory@@SAXQAVrTypeLibrary@TypeLibraries@RunTime@VIP@@PBUcontext@@PAPAX@Z  (Idle)
01:000393D0 ?_alloc_kind_array@memory@@SAXQAVrTypeLibrary@TypeLibraries@RunTime@VIP@@PAUmemoryKind_struct@1@PBUpositive@@PAPAX@Z  (Idle)
01:000393EC ?_alloc_kind_array@memory@@SAXQAVrTypeLibrary@TypeLibraries@RunTime@VIP@@PAUmemoryKind_struct@1@PBUpositive@@PBUcontext@@PAPAX@Z  (Idle)
01:000393F4 ?_alloc_array@memory@@SAXQAVrTypeLibrary@TypeLibraries@RunTime@VIP@@PBUpositive@@PAPAX@Z  (Idle)
01:00039424 ?_alloc_array@memory@@SAXQAVrTypeLibrary@TypeLibraries@RunTime@VIP@@PBUpositive@@PBUcontext@@PAPAX@Z  (Idle)
01:00039458 ?_alloc_atomic_array@memory@@SAXQAVrTypeLibrary@TypeLibraries@RunTime@VIP@@PBUpositive@@PAPAX@Z  (Idle)
01:00039488 ?_alloc_atomic_array@memory@@SAXQAVrTypeLibrary@TypeLibraries@RunTime@VIP@@PBUpositive@@PBUcontext@@PAPAX@Z  (Idle)
01:000394BC ?_alloc_uncollectable_array@memory@@SAXQAVrTypeLibrary@TypeLibraries@RunTime@VIP@@PBUpositive@@PAPAX@Z  (Idle)
01:000394EC ?_alloc_uncollectable_array@memory@@SAXQAVrTypeLibrary@TypeLibraries@RunTime@VIP@@PBUpositive@@PBUcontext@@PAPAX@Z  (Idle)
01:00039520 ?_doAllocate@memory@@SAXQAVrTypeLibrary@TypeLibraries@RunTime@VIP@@PAUmemoryKind_struct@1@PBUpositive@@PBUcontext@@PAPAX@Z 
01:000395A8 ?_doAllocate2@memory@@SAXPAUmemoryKind_struct@1@PBUbyteCount@@PAPAX@Z 
01:000395F0 uncheckedFromPointer@memory@pfc 
01:00039600 ?copyTo@memory@@SAXQAVrTypeLibrary@TypeLibraries@RunTime@VIP@@PAXPAX@Z  (Idle)
01:00039624 ?_copyTo@memory@@SAXQAVrTypeLibrary@TypeLibraries@RunTime@VIP@@PAXPAXPAPAX@Z 
01:00039664 ?_mkArray_kind@memory@@SAXQAVrTypeLibrary@TypeLibraries@RunTime@VIP@@PAUmemoryKind_struct@1@PAU?$__packedList_struct@PAX@@PAPAUtuple_struct@core@@PAPAXAAUpositive@@@Z  (Idle)
01:000396FC ?fillArray_list@memory@@SAXQAVrTypeLibrary@TypeLibraries@RunTime@VIP@@PAXPAU?$__packedList_struct@PAX@@@Z 
01:00039748 ?_mkList_kind@memory@@SAXQAVrTypeLibrary@TypeLibraries@RunTime@VIP@@PAUmemoryKind_struct@1@PAXPBUpositive@@PAPAU?$__packedList_struct@PAPAX@@@Z  (Idle)
--- From 'Obj\string.C639126F.obj'
01:00039804 ?_append@memory@@SAXPAXPAXPBUbyteCount@@PAPAX@Z 
--- From 'Obj\memory.89ECA104.obj'
01:0003982C ?isReadable@memory@@SAXPAX@Z 
01:00039840 ?isReadable@memory@@SAXPAXPBUbyteCount@@@Z 
01:00039860 ?isWritable@memory@@SAXPAX@Z  (Idle)
01:00039874 ?isWritable@memory@@SAXPAXPBUbyteCount@@@Z 
01:00039894 ?_allocHeap@memory@@SAXPBUbyteCount@@PAPAX@Z 
01:000398B0 ?_allocHeap@memory@@SAXPBUbyteCount@@PAUboolean_struct@_builtIn@@PAPAX@Z 
--- From 'Obj\string.C639126F.obj'
01:000398D8 ?_allocHeapProfile@memory@@SAXPBUbyteCount@@PBUcontext@@PAPAX@Z 
--- From 'Obj\memory.89ECA104.obj'
01:00039904 ?_allocHeapProfile@memory@@SAXPBUbyteCount@@PBUcontext@@PAUboolean_struct@_builtIn@@PAPAX@Z 
01:0003992C ?_allocAtomicHeap@memory@@SAXPBUbyteCount@@PAPAX@Z 
--- From 'Obj\string8.ACF7B790.obj'
01:00039948 ?_allocAtomicHeapProfile@memory@@SAXPBUbyteCount@@PBUcontext@@PAPAX@Z 
--- From 'Obj\memory.89ECA104.obj'
01:00039974 ?_allocUncollectableHeap@memory@@SAXPBUbyteCount@@PAPAX@Z  (Idle)
01:00039990 ?_allocAtomicHeap_array@memory@@SAXQAVrTypeLibrary@TypeLibraries@RunTime@VIP@@PBUpositive@@PAPAX@Z  (Idle)
01:00039994 ?_allocUncollectableHeap_array@memory@@SAXQAVrTypeLibrary@TypeLibraries@RunTime@VIP@@PBUpositive@@PAPAX@Z  (Idle)
01:000399FC ?sameType@memory@@SAXQAVrTypeLibrary@TypeLibraries@RunTime@VIP@@PAXPAX@Z 
01:00039A04 ?_allocUncollectableHeapProfile@memory@@SAXPBUbyteCount@@PBUcontext@@PAPAX@Z 
01:00039A30 ?_allocString@memory@@SAXPBUcharCount@@PAPB_W@Z 
01:00039A48 ?_allocStringProfile@memory@@SAXPBUcharCount@@PBUcontext@@PAPB_W@Z  (Idle)
01:00039A88 ?_allocStringBuffer@memory@@SAXPBUcharCount@@PAPB_W@Z 
--- From 'Obj\string8.ACF7B790.obj'
01:00039AA4 ?_allocStringBufferProfile@memory@@SAXPBUcharCount@@PBUcontext@@PAPB_W@Z 
--- From 'Obj\memory.89ECA104.obj'
01:00039AD4 ?releaseHeap@memory@@SAXQAVrTypeLibrary@TypeLibraries@RunTime@VIP@@PAX@Z 
01:00039AE4 ?listToArray@memory@@SAXQAVrTypeLibrary@TypeLibraries@RunTime@VIP@@PAU?$__packedList_struct@PAX@@PBUbyteCount@@XPAPAXAAUpositive@@@Z  (Idle)
01:00039B4C ?listToArray_nonatomic@memory@@SAXQAVrTypeLibrary@TypeLibraries@RunTime@VIP@@PAU?$__packedList_struct@PAX@@PBUbyteCount@@XPAPAXAAUpositive@@@Z 
01:00039BB4 ?fillArray@memory@@SAXQAVrTypeLibrary@TypeLibraries@RunTime@VIP@@PAXPAU?$__packedList_struct@PAX@@PBUbyteCount@@X@Z 
--- From 'Obj\string8.ACF7B790.obj'
01:00039C20 ?_pointerAdd@memory@@SAXQAVrTypeLibrary@TypeLibraries@RunTime@VIP@@PAXPBUbyteOffset@@PAPAX@Z 
01:00039C34 ?_getOffset@memory@@SAXQAVrTypeLibrary@TypeLibraries@RunTime@VIP@@PAXPAXAAUbyteOffset@@@Z 
01:00039C4C ?isNull@memory@@SAXQAVrTypeLibrary@TypeLibraries@RunTime@VIP@@PAX@Z 
--- From 'Obj\reflection.9A16C2FF.obj'
01:00039C60 getp@memory@pfc 
--- From 'Obj\string8.ACF7B790.obj'
01:00039C74 get1@memory@pfc 
01:00039C88 get2@memory@pfc 
--- From 'Obj\memory.89ECA104.obj'
01:00039C9C get4@memory@pfc 
01:00039CB0 get8@memory@pfc 
01:00039CE8 getAp@memory@pfc  (Idle)
--- From 'Obj\string8.ACF7B790.obj'
01:00039D24 getA1@memory@pfc 
--- From 'Obj\memory.89ECA104.obj'
01:00039D60 getA2@memory@pfc  (Idle)
01:00039DA0 getA4@memory@pfc  (Idle)
01:00039DDC getA8@memory@pfc  (Idle)
01:00039E2C setp@memory@pfc 
01:00039E5C set1@memory@pfc 
--- From 'Obj\string8.ACF7B790.obj'
01:00039E8C set2@memory@pfc 
--- From 'Obj\memory.89ECA104.obj'
01:00039EC0 set4@memory@pfc 
01:00039EF0 set8@memory@pfc 
01:00039F08 setAp@memory@pfc  (Idle)
01:00039F64 setA1@memory@pfc  (Idle)
01:00039FC0 setA2@memory@pfc  (Idle)
01:0003A020 setA4@memory@pfc 
01:0003A07C setA8@memory@pfc  (Idle)
01:0003A0C4 mkp@memory@pfc  (Idle)
01:0003A0E8 mk1@memory@pfc  (Idle)
--- From 'Obj\string8.ACF7B790.obj'
01:0003A10C mk2@memory@pfc 
--- From 'Obj\memory.89ECA104.obj'
01:0003A134 mk4@memory@pfc 
01:0003A158 mk8@memory@pfc  (Idle)
01:0003A194 ?_bitOr@bit@@SAXIIIPAI@Z  (Idle)
01:0003A1BC ?_bitOr@bit@@SAXIIIIPAI@Z  (Idle)
01:0003A1F4 ?_bitOr@bit@@SAXIIIIIPAI@Z  (Idle)
01:0003A238 ?_bitOrList@bit@@SAXPAU?$__packedList_struct@Uunsigned@@@@PAI@Z  (Idle)
01:0003A254 ?_bitOrList_Tail@bit@@SAXPAU?$__packedList_struct@Uunsigned@@@@IPAI@Z 
--- From 'Obj\string8.ACF7B790.obj'
01:0003A29C ?isSet@bit@@SAXII@Z 
--- From 'Obj\memory.89ECA104.obj'
01:0003A2C4 ?_clear@bit@@SAXIIPAI@Z  (Idle)
01:0003A2EC ?_bit2boolean@bit@@SAXIIPAPAUboolean_struct@_builtIn@@@Z  (Idle)
01:0003A324 ?_getLow4of8@bit@@SAXPBUunsigned8@@AAUunsigned4@@@Z  (Idle)
01:0003A348 ?_setLow4of8@bit@@SAXPBUunsigned8@@PBUunsigned4@@AAU2@@Z  (Idle)
01:0003A398 ?_getHigh4of8@bit@@SAXPBUunsigned8@@AAUunsigned4@@@Z  (Idle)
01:0003A3D0 ?_setHigh4of8@bit@@SAXPBUunsigned8@@PBUunsigned4@@AAU2@@Z  (Idle)
01:0003A434 ?_swap4of8@bit@@SAXPBUunsigned8@@AAU2@@Z  (Idle)
01:0003A494 ?_getLow8of16@bit@@SAXPBUunsigned16@@AAUunsigned8@@@Z  (Idle)
01:0003A4BC ?_setLow8of16@bit@@SAXPBUunsigned16@@PBUunsigned8@@AAU2@@Z  (Idle)
01:0003A4FC ?_getHigh8of16@bit@@SAXPBUunsigned16@@AAUunsigned8@@@Z  (Idle)
01:0003A534 ?_setHigh8of16@bit@@SAXPBUunsigned16@@PBUunsigned8@@AAU2@@Z  (Idle)
01:0003A584 ?_swap8of16@bit@@SAXPBUunsigned16@@AAU2@@Z  (Idle)
01:0003A5E8 ?_getLow16of32@bit@@SAXIAAUunsigned16@@@Z 
01:0003A608 ?_setLow16of32@bit@@SAXIPBUunsigned16@@PAI@Z 
01:0003A640 ?_getHigh16of32@bit@@SAXIAAUunsigned16@@@Z 
01:0003A670 ?_setHigh16of32@bit@@SAXIPBUunsigned16@@PAI@Z 
01:0003A6C0 ?_swap16of32@bit@@SAXIPAI@Z 
01:0003A720 ?_toBigEndian@bit@@SAXIPAI@Z  (Idle)
01:0003A7D4 ?_bitSplit@bit@@SAXIPAPAU?$__packedList_struct@Uunsigned@@@@@Z  (Idle)
01:0003A83C ?getUnsigned32bytes@bit@@SAXIAAUunsigned16@@1@Z  (Idle)
01:0003A874 ?getInteger32bytes@bit@@SAXIAAUunsigned16@@AAUinteger16@@@Z  (Idle)
01:0003A8AC ?getUnsigned64bytes@bit@@SAXPA_KPAIPAI@Z  (Idle)
01:0003A8CC ?getInteger64bytes@bit@@SAXPA_JPAIPAH@Z  (Idle)
01:0003A8EC ?_mkUnsigned32@bit@@SAXPBUunsigned16@@0PAI@Z  (Idle)
01:0003A920 ?_mkInteger32@bit@@SAXPBUunsigned16@@PBUinteger16@@PAH@Z  (Idle)
01:0003A954 ?_mkUnsigned64@bit@@SAXIIPAPA_K@Z  (Idle)
01:0003A9A4 ?_mkInteger64@bit@@SAXIHPAPA_J@Z  (Idle)
01:0003A9F4 ?_reset@bit@@SAXIIPAI@Z  (Idle)
01:0003A9FC ?_getLow16@bit@@SAXPBUunsignedNative@@AAUunsigned16@@@Z  (Idle)
01:0003AA24 ?_bitOr@bit@@SAXPA_K00PAPA_K@Z  (Idle)
01:0003AAAC ?_bitOr@bit@@SAXPBUunsignedNative@@00AAU2@@Z  (Idle)
01:0003AAD4 ?_bitOr@bit@@SAXPA_K000PAPA_K@Z  (Idle)
01:0003AB84 ?_bitOr@bit@@SAXPBUunsignedNative@@000AAU2@@Z  (Idle)
01:0003ABBC ?_bitOr@bit@@SAXPA_K0000PAPA_K@Z  (Idle)
01:0003AC94 ?_bitOr@bit@@SAXPBUunsignedNative@@0000AAU2@@Z  (Idle)
01:0003ACD8 ?isSet@bit@@SAXPA_K0@Z  (Idle)
01:0003AD50 ?isSet@bit@@SAXPBUunsignedNative@@0@Z  (Idle)
01:0003AD78 ?_clear@bit@@SAXPA_K0PAPA_K@Z  (Idle)
01:0003ADEC ?_clear@bit@@SAXPBUunsignedNative@@0AAU2@@Z  (Idle)
01:0003AE1C weakReference{@Type}?_initObject@@@QAGXQAV1@H@Z 
01:0003AE4C ?@create_object@weakReference@@SGQAV1@@PAXQAVrTypeLibrary@TypeLibraries@RunTime@VIP@@@Z 
01:0003AE70 weakReference{@Type}?_InternalFinalizer@@@QAGXQAV1@@Z 
01:0003AEC0 weakPointer?_initObject@@@QAGXQAV1@H@Z 
01:0003AEE0 ?@create_object@weakPointer@@SGQAV1@@XZ 
01:0003AEFC weakPointer?_InternalFinalizer@@@QAGXQAV1@@Z 
--- From 'Obj\namedvalue.9E6FA98D.obj'
01:0003AF50 ?_tryMapLookUp@namedValue@@SAXPAU?$__packedList_struct@U1@@@PB_WPAPAUvalue_struct@core@@@Z 
01:0003AFAC ?_tryMapLookUpIgnoreCase@namedValue@@SAXPAU?$__packedList_struct@U1@@@PB_WPAPAUvalue_struct@core@@@Z  (Idle)
01:0003B010 ?_mapLookUp@namedValue@@SAXPAU?$__packedList_struct@U1@@@PB_WPAPAUvalue_struct@core@@@Z  (Idle)
01:0003B118 ?_mapLookUp@namedValue@@SAXPAU?$__packedList_struct@U1@@@PB_WPAUvalue_struct@core@@PAPAU34@@Z  (Idle)
01:0003B154 ?_lookUp_nd@namedValue@@SAXPAU?$__packedList_struct@U1@@@PB_WPAPAUvalue_struct@core@@@Z  (Idle)
01:0003B1C0 ?_getNamed_integer@namedValue@@SAXPAU?$__packedList_struct@U1@@@PB_WPAH@Z  (Idle)
01:0003B248 ?_tryGetNamed_integer@namedValue@@SAXPAU?$__packedList_struct@U1@@@PB_WPAH@Z  (Idle)
01:0003B2A4 ?_getNamedDefault_integer@namedValue@@SAXPAU?$__packedList_struct@U1@@@PB_WHPAH@Z  (Idle)
01:0003B31C ?_getNamed_unsigned@namedValue@@SAXPAU?$__packedList_struct@U1@@@PB_WPAI@Z  (Idle)
01:0003B3A4 ?_tryGetNamed_unsigned@namedValue@@SAXPAU?$__packedList_struct@U1@@@PB_WPAI@Z  (Idle)
01:0003B400 ?_getNamedDefault_unsigned@namedValue@@SAXPAU?$__packedList_struct@U1@@@PB_WIPAI@Z  (Idle)
01:0003B478 ?_getNamed_real@namedValue@@SAXPAU?$__packedList_struct@U1@@@PB_WPAPAN@Z  (Idle)
01:0003B500 ?_tryGetNamed_real@namedValue@@SAXPAU?$__packedList_struct@U1@@@PB_WPAPAN@Z  (Idle)
01:0003B55C ?_getNamedDefault_real@namedValue@@SAXPAU?$__packedList_struct@U1@@@PB_WPANPAPAN@Z  (Idle)
01:0003B5D4 ?_getNamed_char@namedValue@@SAXPAU?$__packedList_struct@U1@@@PB_WPA_W@Z  (Idle)
01:0003B65C ?_tryGetNamed_char@namedValue@@SAXPAU?$__packedList_struct@U1@@@PB_WPA_W@Z  (Idle)
01:0003B6B8 ?_getNamedDefault_char@namedValue@@SAXPAU?$__packedList_struct@U1@@@PB_W_WPA_W@Z  (Idle)
01:0003B734 ?_getNamed_string@namedValue@@SAXPAU?$__packedList_struct@U1@@@PB_WPAPB_W@Z  (Idle)
01:0003B7BC ?_tryGetNamed_string@namedValue@@SAXPAU?$__packedList_struct@U1@@@PB_WPAPB_W@Z 
01:0003B818 ?_getNamedDefault_string@namedValue@@SAXPAU?$__packedList_struct@U1@@@PB_W1PAPB_W@Z  (Idle)
01:0003B890 ?_getNamed_boolean@namedValue@@SAXPAU?$__packedList_struct@U1@@@PB_WPAPAUboolean_struct@_builtIn@@@Z  (Idle)
01:0003B904 ?_tryGetNamed_boolean@namedValue@@SAXPAU?$__packedList_struct@U1@@@PB_WPAPAUboolean_struct@_builtIn@@@Z  (Idle)
01:0003B94C ?_getNamedDefault_boolean@namedValue@@SAXPAU?$__packedList_struct@U1@@@PB_WPAUboolean_struct@_builtIn@@PAPAU34@@Z  (Idle)
01:0003B9B4 ?_getNamed_binary@namedValue@@SAXPAU?$__packedList_struct@U1@@@PB_WQAPAE@Z  (Idle)
01:0003BA50 ?_tryGetNamed_binary@namedValue@@SAXPAU?$__packedList_struct@U1@@@PB_WQAPAE@Z  (Idle)
01:0003BAAC ?_getNamedDefault_binary@namedValue@@SAXPAU?$__packedList_struct@U1@@@PB_WQAEQAPAE@Z  (Idle)
01:0003BB34 ?_getNamed_object@namedValue@@SAXPAU?$__packedList_struct@U1@@@PB_WPAPAV3@@@Z  (Idle)
01:0003BBD0 ?_tryGetNamed_object@namedValue@@SAXPAU?$__packedList_struct@U1@@@PB_WPAPAV3@@@Z  (Idle)
01:0003BC2C ?_getNamedDefault_object@namedValue@@SAXPAU?$__packedList_struct@U1@@@PB_WQAV3@@PAPAV3@@@Z  (Idle)
01:0003BCB4 ?_getNamed_pointer@namedValue@@SAXPAU?$__packedList_struct@U1@@@PB_WPAPAX@Z  (Idle)
01:0003BD50 ?_tryGetNamed_pointer@namedValue@@SAXPAU?$__packedList_struct@U1@@@PB_WPAPAX@Z  (Idle)
01:0003BDAC ?_getNamedDefault_pointer@namedValue@@SAXPAU?$__packedList_struct@U1@@@PB_WPAXPAPAX@Z  (Idle)
01:0003BE24 ?_getNamed_handle@namedValue@@SAXPAU?$__packedList_struct@U1@@@PB_WAAU3@@Z  (Idle)
01:0003BEC0 ?_tryGetNamed_handle@namedValue@@SAXPAU?$__packedList_struct@U1@@@PB_WAAU3@@Z  (Idle)
01:0003BF1C ?_getNamedDefault_handle@namedValue@@SAXPAU?$__packedList_struct@U1@@@PB_WPBU3@AAU3@@Z  (Idle)
01:0003BF94 ?_getNamed_gmtTimeValue@namedValue@@SAXPAU?$__packedList_struct@U1@@@PB_WPAAAU3@@Z  (Idle)
01:0003C01C ?_tryGetNamed_gmtTimeValue@namedValue@@SAXPAU?$__packedList_struct@U1@@@PB_WPAAAU3@@Z  (Idle)
01:0003C078 ?_getNamedDefault_gmtTimeValue@namedValue@@SAXPAU?$__packedList_struct@U1@@@PB_WPAPBU3@PAAAU3@@Z  (Idle)
01:0003C0F0 ?_getNamed_integer64@namedValue@@SAXPAU?$__packedList_struct@U1@@@PB_WPAPA_J@Z  (Idle)
01:0003C180 ?_tryGetNamed_integer64@namedValue@@SAXPAU?$__packedList_struct@U1@@@PB_WPAPA_J@Z  (Idle)
01:0003C1CC ?_getNamedDefault_integer64@namedValue@@SAXPAU?$__packedList_struct@U1@@@PB_WPA_JPAPA_J@Z  (Idle)
01:0003C244 ?_getNamed_unsigned64@namedValue@@SAXPAU?$__packedList_struct@U1@@@PB_WPAPA_K@Z  (Idle)
01:0003C2D4 ?_tryGetNamed_unsigned64@namedValue@@SAXPAU?$__packedList_struct@U1@@@PB_WPAPA_K@Z  (Idle)
01:0003C320 ?_getNamedDefault_unsigned64@namedValue@@SAXPAU?$__packedList_struct@U1@@@PB_WPA_KPAPA_K@Z  (Idle)
--- From 'Obj\programcontrol.09950828.obj'
01:0003C3A0 ?_setRuntimeExceptionRaiser@programControl@@SAXXPAX@Z 
01:0003C3DC ?setRuntimeExceptionRaiser@programControl@@SAXXPAX@Z  (Idle)
--- From 'Obj\reflection.9A16C2FF.obj'
01:0003C3E0 ?_getTypeLib@reflection_native@reflection@pfc@@SAXQAVrTypeLibrary@TypeLibraries@RunTime@VIP@@PAXPAPAVtypeLibrary@@32@@Z  (Idle)
01:0003C3E8 $$$reflection$GetTypeLib 
01:0003C3F8 ?_getScopeDescriptor@reflection_native@reflection@pfc@@SAXPBUhScopeDescriptor@core@@PAPAVscopeDescriptor@@32@@Z 
01:0003C408 ?_getPresenter@reflection_native@reflection@pfc@@SAXQAVrTypeLibrary@TypeLibraries@RunTime@VIP@@PAXPAX@Z  (Idle)
01:0003C434 ?isPointerNull@reflection_native@reflection@pfc@@SAXQAVrTypeLibrary@TypeLibraries@RunTime@VIP@@PAX@Z  (Idle)
01:0003C45C ?isPointerNullEx@reflection_native@reflection@pfc@@SAXQAVtypeLibrary@@32@PBUboxedTerm@3@@Z 
01:0003C484 ?_getFunctorName@reflection@1pfc@@SAXQAVrTypeLibrary@TypeLibraries@RunTime@VIP@@PAXPAPB_W@Z  (Idle)
01:0003C550 ?_offsetof@reflection@1pfc@@SAXQAVrTypeLibrary@TypeLibraries@RunTime@VIP@@PAXIAAUbyteCount@core@@@Z  (Idle)
01:0003C754 ?_getFunctorValue@reflection@1pfc@@SAXQAVrTypeLibrary@TypeLibraries@RunTime@VIP@@PAXAAUfunctor@@@Z  (Idle)
01:0003C778 ?_pointerOfField@reflection@1pfc@@SAXQAVrTypeLibrary@TypeLibraries@RunTime@VIP@@PAXIPAPAX@Z  (Idle)
01:0003C7A4 ?_deParameterizeName@reflection@1pfc@@SAXPB_WPAPB_W@Z  (Idle)
01:0003C7EC ?isEmbeddedClassName@reflection@1pfc@@SAXPB_W@Z  (Idle)
--- From 'Obj\registry.9E3F9277.obj'
01:0003C880 ?raise_wrongValue_explicit@registry_exception@@SAXPAUprogramPoint_struct@core@@PBUhResult@@PAUrootKey_struct@registry@@PB_W3@Z  (Idle)
01:0003CA14 ?raise_noPath_explicit@registry_exception@@SAXPAUprogramPoint_struct@core@@PBUhResult@@PAUrootKey_struct@registry@@PB_W3@Z  (Idle)
01:0003CBA8 ?raise_cannotCreateKey_explicit@registry_exception@@SAXPAUprogramPoint_struct@core@@PBUhResult@@PAUrootKey_struct@registry@@PB_W@Z  (Idle)
01:0003CCE8 ?_getSystemDescription@registry_exception@@SAXPBUhResult@@PAPB_W@Z 
01:0003CD24 ?_getRootKeyName@registry_exception@@SAXPAUrootKey_struct@registry@@PAPB_W@Z 
01:0003CD90 ?createKey@registry@@SAXPAUrootKey_struct@1@PB_W@Z  (Idle)
01:0003CDA4 ?createKey@registry@@SAXPAUrootKey_struct@1@PB_WPAUregistryView_struct@1@@Z 
01:0003CE00 ?existKey@registry@@SAXPAUrootKey_struct@1@PB_W@Z  (Idle)
01:0003CE14 ?existKey@registry@@SAXPAUrootKey_struct@1@PB_WPAUregistryView_struct@1@@Z 
01:0003CE68 ?deleteKey@registry@@SAXPAUrootKey_struct@1@PB_W@Z  (Idle)
01:0003CE7C ?deleteKey@registry@@SAXPAUrootKey_struct@1@PB_WPAUregistryView_struct@1@@Z 
01:0003CF74 ?is32on32@registry@@SAXI@Z 
01:0003CFC8 ?deleteKeyList@registry@@SAXPAUrootKey_struct@1@PB_WPAU?$__packedList_struct@Ustring@@@@PAUregistryView_struct@1@@Z 
01:0003D024 ?setValue@registry@@SAXPAUrootKey_struct@1@PB_WPAU?$__packedList_struct@UnamedValue@@@@@Z  (Idle)
01:0003D038 ?setValue@registry@@SAXPAUrootKey_struct@1@PB_WPAU?$__packedList_struct@UnamedValue@@@@PAUregistryView_struct@1@@Z 
01:0003D15C ?setValuesToKey@registry@@SAXPBUhkey@@PAU?$__packedList_struct@UnamedValue@@@@@Z 
01:0003D1A8 ?_getValue@registry@@SAXPAUrootKey_struct@1@PB_W1PAPAUvalue_struct@core@@@Z 
01:0003D1C4 ?_getValue@registry@@SAXPAUrootKey_struct@1@PB_W1PAUregistryView_struct@1@PAPAUvalue_struct@core@@@Z 
01:0003D278 ?_tryGetValue@registry@@SAXPAUrootKey_struct@1@PB_W1PAPAUvalue_struct@core@@@Z 
01:0003D294 ?_tryGetValue@registry@@SAXPAUrootKey_struct@1@PB_W1PAUregistryView_struct@1@PAPAUvalue_struct@core@@@Z 
01:0003D398 ?removeValue@registry@@SAXPAUrootKey_struct@1@PB_WPAU?$__packedList_struct@Ustring@@@@@Z  (Idle)
01:0003D3AC ?removeValue@registry@@SAXPAUrootKey_struct@1@PB_WPAU?$__packedList_struct@Ustring@@@@PAUregistryView_struct@1@@Z 
01:0003D45C ?removeListValues@registry@@SAXPBUhkey@@PAU?$__packedList_struct@Ustring@@@@@Z 
01:0003D498 ?_getSubkeys@registry@@SAXPAUrootKey_struct@1@PB_WPAPAU?$__packedList_struct@Ustring@@@@@Z  (Idle)
01:0003D4B4 ?_getSubkeys@registry@@SAXPAUrootKey_struct@1@PB_WPAUregistryView_struct@1@PAPAU?$__packedList_struct@Ustring@@@@@Z 
01:0003D564 ?_getAllValues@registry@@SAXPAUrootKey_struct@1@PB_WPAPAU?$__packedList_struct@UnamedValue@@@@@Z  (Idle)
01:0003D580 ?_getAllValues@registry@@SAXPAUrootKey_struct@1@PB_WPAUregistryView_struct@1@PAPAU?$__packedList_struct@UnamedValue@@@@@Z 
01:0003D630 ?_keyWrite@registry@@SAXPAUregistryView_struct@1@AAUregsAM@@@Z 
01:0003D64C ?_keyRead@registry@@SAXPAUregistryView_struct@1@AAUregsAM@@@Z 
01:0003D668 ?_applyView@registry@@SAXPAUregistryView_struct@1@PBUregsAM@@AAU4@@Z 
01:0003D6C0 ?_getRootKeyHandle@registry@@SAXPAUrootKey_struct@1@AAUhkey@@@Z 
--- From 'Obj\std.8408A9CC.obj'
01:0003D730 ?_fromTo@std@@SAXHHPAH@Z 
01:0003D778 ?_downTo@std@@SAXHHPAH@Z 
01:0003D7C0 ?_between@std@@SAXHHPAH@Z  (Idle)
01:0003D860 ?_fromToInStep@std@@SAXHHPBUpositive@@PAH@Z  (Idle)
01:0003D8AC ?_downToInStep@std@@SAXHHPBUpositive@@PAH@Z  (Idle)
01:0003D8F8 ?_betweenInStep@std@@SAXHHPBUpositive@@PAH@Z  (Idle)
01:0003D9AC ?_countFrom@std@@SAXHPAH@Z  (Idle)
01:0003D9DC ?_countFromInStep@std@@SAXHPBUpositive@@PAH@Z  (Idle)
01:0003DA0C ?_countDownFrom@std@@SAXHPAH@Z  (Idle)
01:0003DA3C ?_countDownFromInStep@std@@SAXHPBUpositive@@PAH@Z  (Idle)
01:0003DA6C ?repeat@std@@SAXXZ  (Idle)
01:0003DA88 ?_cIterate@std@@SAXHPAH@Z 
01:0003DAB8 ?_fromTo@std@@SAXPA_J0PAPA_J@Z 
01:0003DB94 ?_fromTo@std@@SAXPBUintegerNative@@0AAU2@@Z  (Idle)
01:0003DBE0 ?_fromTo@std@@SAXIIPAI@Z  (Idle)
01:0003DC28 ?_fromTo@std@@SAXPA_K0PAPA_K@Z  (Idle)
01:0003DD04 ?_fromTo@std@@SAXPBUunsignedNative@@0AAU2@@Z  (Idle)
01:0003DD50 ?_downTo@std@@SAXPA_J0PAPA_J@Z  (Idle)
01:0003DE2C ?_downTo@std@@SAXPBUintegerNative@@0AAU2@@Z  (Idle)
01:0003DE78 ?_downTo@std@@SAXIIPAI@Z  (Idle)
01:0003DEC0 ?_downTo@std@@SAXPA_K0PAPA_K@Z  (Idle)
01:0003DF9C ?_downTo@std@@SAXPBUunsignedNative@@0AAU2@@Z  (Idle)
01:0003DFE8 ?_between@std@@SAXIIPAI@Z  (Idle)
01:0003E088 ?_cIterate@std@@SAXHPAI@Z  (Idle)
01:0003E0B8 ?_cIterate@std@@SAXIPAI@Z  (Idle)
01:0003E0E8 ?_cIterate@std@@SAXIPAH@Z  (Idle)
--- From 'Obj\string.C639126F.obj'
01:0003E120 ?new@inputSupport@@SAXQAV1@@QAVinputBuffer@@@PAUmode_struct@stream@@@Z 
--- From 'Obj\inputstreamsupport.CF2B28B0.obj'
01:0003E154 ?setMode@inputSupport@@SGXQAV1@@PAUmode_struct@stream@@@Z 
01:0003E188 ?getMode@inputSupport@@SGPAUmode_struct@stream@@QAV1@@@Z 
01:0003E1A0 ?_readChar@inputSupport@@SAXQAV1@@PA_W@Z 
01:0003E1D0 ?ungetChar@inputSupport@@SAXQAV1@@@Z 
01:0003E1F8 ?_readLine@inputSupport@@SAXQAV1@@PAPB_W@Z 
01:0003E228 ?_readLineCRLF@inputSupport@@SAXQAV1@@PAPB_W@Z 
01:0003E258 ?_read@inputSupport@@SAXQAV1@@QAVrTypeLibrary@TypeLibraries@RunTime@VIP@@PAPAX@Z 
01:0003E280 ?consult@inputSupport@@SAXQAV1@@PBUfactDB@@@Z 
01:0003E2AC ?reconsult@inputSupport@@SAXQAV1@@PBUfactDB@@@Z 
01:0003E2C0 ?_readBytes@inputSupport@@SAXQAV1@@PBUbyteCount@@QAPAE@Z 
01:0003E2E0 ?_readString@inputSupport@@SAXQAV1@@PBUcharCount@@PAPB_W@Z 
01:0003E314 ?checkMode_text_explicit@inputSupport@@SAXQAV1@@PAUprogramPoint_struct@core@@@Z 
01:0003E33C ?_convertMode@inputSupport@@SAXPAUmode_struct@stream@@AAUbooleanInt@core@@@Z 
01:0003E364 ?endOfStream@inputSupport@@SAXQAV1@@@Z 
01:0003E3A8 ?repeatToEndOfStream@inputSupport@@SAXQAV1@@@Z 
01:0003E404 ?allowNullPointersBufferSupport@inputSupport@@SGPAUboolean_struct@_builtIn@@QAV1@@@Z 
01:0003E41C ?_new@inputSupport@@SAXQAVinputBuffer@@@PAUmode_struct@stream@@PAPAV1@@@Z  (Idle)
01:0003E448 ?_object_facts_initializer@inputSupport@@SGXQAV1@@@Z 
01:0003E460 ?inputBuffer@inputSupport@@SGXQAV1@@QAV0@@@Z 
01:0003E470 ?inputBuffer@inputSupport@@SGQAV0@@QAV1@@@Z 
01:0003E47C ?allowNullPointers@inputSupport@@SGXQAV1@@PAUboolean_struct@_builtIn@@@Z 
01:0003E48C ?allowNullPointers@inputSupport@@SGPAUboolean_struct@_builtIn@@QAV1@@@Z 
--- From 'Obj\string.C639126F.obj'
01:0003E4A0 inputSupport?_initObject@@@QAGXQAV1@H@Z 
--- From 'Obj\inputstreamsupport.CF2B28B0.obj'
01:0003E4C0 ?@create_object@inputSupport@@SGQAV1@@XZ 
--- From 'Obj\string.C639126F.obj'
01:0003E4DC inputSupport?_InternalFinalizer@@@QAGXQAV1@@Z 
--- From 'Obj\outputstreamsupport.DD5669F3.obj'
01:0003E4F0 ?_getFlushProcedure@outputSupport@@SAXQAV1@@PAUboolean_struct@_builtIn@@PAX@Z  (Idle)
01:0003E534 ?doFlush@outputSupport@@SAXQAV1@@0@Z 
01:0003E540 ?doNotFlush@outputSupport@@SAXQAV1@@@Z 
01:0003E548 ?new@outputSupport@@SAXQAV1@@QAVoutputBuffer@@@PAUmode_struct@stream@@PAUboolean_struct@_builtIn@@@Z 
--- From 'Obj\string.C639126F.obj'
01:0003E584 ?newEx@outputSupport@@SAXQAV1@@QAVoutputBuffer@@@PAUmode_struct@stream@@PAUoptional_struct@core@@X@Z 
--- From 'Obj\outputstreamsupport.DD5669F3.obj'
01:0003E5C4 ?setMode@outputSupport@@SGXQAVstream@@@PAUmode_struct@2@@Z 
01:0003E5F8 ?getMode@outputSupport@@SGPAUmode_struct@stream@@QAV3@@@Z 
01:0003E610 ?flush@outputSupport@@SAXQAVoutputStream@@@@Z 
01:0003E628 ?getPosition@outputSupport@@SGPBUfileSize@fileSystem_api@@QAVstream@@@@Z 
01:0003E640 ?setPosition@outputSupport@@SGXQAVstream@@@PBUfileSize@fileSystem_api@@@Z 
01:0003E658 ?getCRLFconversion@outputSupport@@SGPAUboolean_struct@_builtIn@@QAVstream@@@@Z 
01:0003E670 ?setCRLFconversion@outputSupport@@SGXQAVstream@@@PAUboolean_struct@_builtIn@@@Z 
01:0003E698 ?close@outputSupport@@SGXQAVstream@@@@Z 
01:0003E6A8 ?write@outputSupport@@SAXQAVoutputStream@@@@Z 
01:0003E6F8 ?writeQuoted@outputSupport@@SAXQAVoutputStream@@@@Z 
01:0003E758 ?writef@outputSupport@@SAXQAVoutputStream@@@PB_W@Z 
01:0003E7FC ?nl@outputSupport@@SAXQAVoutputStream@@@@Z 
01:0003E830 ?save@outputSupport@@SAXQAVoutputStream@@@PBUfactDB@@@Z 
01:0003E88C ?writeBytes@outputSupport@@SAXQAVoutputStream@@@PAXPBUbyteCount@@@Z 
01:0003E8D8 ?checkMode_text_explicit@outputSupport@@SAXQAV1@@PAUprogramPoint_struct@core@@@Z 
01:0003E900 ?allowNullPointersBufferSupport@outputSupport@@SGPAUboolean_struct@_builtIn@@QAV1@@@Z 
01:0003E918 ?_new@outputSupport@@SAXQAVoutputBuffer@@@PAUmode_struct@stream@@PAUboolean_struct@_builtIn@@PAPAV1@@@Z  (Idle)
01:0003E948 ?_newEx@outputSupport@@SAXQAVoutputBuffer@@@PAUmode_struct@stream@@PAUoptional_struct@core@@XPAPAV1@@@Z  (Idle)
01:0003E978 ?_object_facts_initializer@outputSupport@@SGXQAV1@@@Z 
01:0003E990 ?allowNullPointers@outputSupport@@SGXQAVstream@@@PAUboolean_struct@_builtIn@@@Z 
01:0003E9A0 ?allowNullPointers@outputSupport@@SGPAUboolean_struct@_builtIn@@QAVstream@@@@Z 
--- From 'Obj\string.C639126F.obj'
01:0003E9B4 outputSupport?_initObject@@@QAGXQAV1@H@Z 
--- From 'Obj\outputstreamsupport.DD5669F3.obj'
01:0003E9D8 ?@create_object@outputSupport@@SGQAV1@@XZ 
--- From 'Obj\string.C639126F.obj'
01:0003E9F4 outputSupport?_InternalFinalizer@@@QAGXQAV1@@Z 
01:0003EA00 ?raise_endOfStream_explicit@stream_exception@@SAXPAUprogramPoint_struct@core@@@Z 
--- From 'Obj\stream.6FDF4122.obj'
01:0003EA18 ?raise_notSupportedProperty_explicit@stream_exception@@SAXPAUprogramPoint_struct@core@@@Z 
--- From 'Obj\string.C639126F.obj'
01:0003EA30 ?raise_noCRLFconversion_explicit@stream_exception@@SAXPAUprogramPoint_struct@core@@@Z 
01:0003EA48 ?raise_wrongMode_explicit@stream_exception@@SAXPAUprogramPoint_struct@core@@PB_W@Z 
--- From 'Obj\stream.6FDF4122.obj'
01:0003EABC ?raise_noStream_explicit@stream_exception@@SAXPAUprogramPoint_struct@core@@@Z  (Idle)
01:0003EAD4 ?_tryGetInputStream@stdioState@@SAXQAV1@@PAPAVinputStream@@@@Z 
01:0003EB0C ?_tryGetOutputStream@stdioState@@SAXQAV1@@PAPAVoutputStream@@@@Z 
01:0003EB44 ?_tryGetErrorStream@stdioState@@SAXQAV1@@PAPAVoutputStream@@@@Z 
01:0003EB7C ?setInputStream@stdioState@@SAXQAV1@@QAVinputStream@@@@Z 
01:0003EB90 ?_getInputStream@stdioState@@SAXQAV1@@PAPAVinputStream@@@@Z 
01:0003EBB8 ?setOutputStream@stdioState@@SAXQAV1@@QAVoutputStream@@@@Z 
01:0003EBCC ?_getOutputStream@stdioState@@SAXQAV1@@PAPAVoutputStream@@@@Z 
01:0003EBF4 ?setErrorStream@stdioState@@SAXQAV1@@QAVoutputStream@@@@Z 
01:0003EC08 ?_getErrorStream@stdioState@@SAXQAV1@@PAPAVoutputStream@@@@Z 
01:0003EC30 ?new@stdioState@@SAXQAV1@@@Z  (Idle)
01:0003EC38 ?_new@stdioState@@SAXPAPAV1@@@Z  (Idle)
01:0003EC5C ?_object_facts_initializer@stdioState@@SGXQAV1@@@Z 
01:0003EC7C ?inputStream@stdioState@@SGXQAV1@@QAV0@@@Z 
01:0003EC8C ?inputStream@stdioState@@SGQAV0@@QAV1@@@Z 
01:0003ECAC ?outputStream@stdioState@@SGXQAV1@@QAV0@@@Z 
01:0003ECBC ?outputStream@stdioState@@SGQAV0@@QAV1@@@Z 
01:0003ECDC ?errorStream@stdioState@@SGXQAV1@@QAVoutputStream@@@@Z 
01:0003ECEC ?errorStream@stdioState@@SGQAVoutputStream@@@QAV1@@@Z 
01:0003ED0C ?inputStream@stdio@@SGQAV0@@XZ 
01:0003ED2C ?inputStream@stdio@@SGXQAV0@@@Z 
01:0003ED4C ?_tryGetInputStream@stdio@@SAXPAPAVinputStream@@@@Z  (Idle)
01:0003ED74 ?outputStream@stdio@@SGQAV0@@XZ 
01:0003ED94 ?outputStream@stdio@@SGXQAV0@@@Z 
01:0003EDB8 ?_tryGetOutputStream@stdio@@SAXPAPAVoutputStream@@@@Z 
01:0003EDE0 ?errorStream@stdio@@SGQAVoutputStream@@@XZ 
01:0003EE00 ?errorStream@stdio@@SGXQAVoutputStream@@@@Z 
01:0003EE24 ?_tryGetErrorStream@stdio@@SAXPAPAVoutputStream@@@@Z 
01:0003EE4C ?write@stdio@@SAXXZ  (Idle)
01:0003EE88 ?writef@stdio@@SAXPB_W@Z  (Idle)
01:0003EECC ?writeBytes@stdio@@SAXPAXPBUbyteCount@@@Z  (Idle)
01:0003EF10 ?writeQuoted@stdio@@SAXXZ  (Idle)
01:0003EF4C ?nl@stdio@@SAXXZ  (Idle)
01:0003EF78 ?save@stdio@@SAXPBUfactDB@@@Z  (Idle)
01:0003EFB4 ?flush@stdio@@SAXXZ  (Idle)
01:0003EFE0 ?write_error@stdio@@SAXXZ  (Idle)
01:0003F01C ?writef_error@stdio@@SAXPB_W@Z  (Idle)
01:0003F060 ?writeBytes_error@stdio@@SAXPAXPBUbyteCount@@@Z  (Idle)
01:0003F0A4 ?writeQuoted_error@stdio@@SAXXZ  (Idle)
01:0003F0E0 ?nl_error@stdio@@SAXXZ  (Idle)
01:0003F10C ?save_error@stdio@@SAXPBUfactDB@@@Z  (Idle)
01:0003F148 ?flush_error@stdio@@SAXXZ  (Idle)
01:0003F174 ?_read@stdio@@SAXQAVrTypeLibrary@TypeLibraries@RunTime@VIP@@PAPAX@Z  (Idle)
01:0003F1B8 ?_readChar@stdio@@SAXPA_W@Z  (Idle)
01:0003F1F4 ?ungetChar@stdio@@SAXXZ  (Idle)
01:0003F220 ?_readLine@stdio@@SAXPAPB_W@Z  (Idle)
01:0003F25C ?_readString@stdio@@SAXPBUcharCount@@PAPB_W@Z  (Idle)
01:0003F2A0 ?_readBytes@stdio@@SAXPBUbyteCount@@QAPAE@Z  (Idle)
01:0003F2E4 ?consult@stdio@@SAXPBUfactDB@@@Z  (Idle)
01:0003F320 ?endOfStream@stdio@@SAXXZ  (Idle)
01:0003F34C ?_getOutputStreamPP_explicit@stdio@@SAXPAUprogramPoint_struct@core@@PAPAVoutputStream@@@@Z 
01:0003F390 ?_getErrorStreamPP_explicit@stdio@@SAXPAUprogramPoint_struct@core@@PAPAVoutputStream@@@@Z 
01:0003F3D4 ?_getInputStreamPP_explicit@stdio@@SAXPAUprogramPoint_struct@core@@PAPAVinputStream@@@@Z 
01:0003F418 ?setInputStream@stdio@@SAXQAVinputStream@@@@Z  (Idle)
01:0003F428 ?_getInputStream@stdio@@SAXPAPAVinputStream@@@@Z  (Idle)
01:0003F43C ?setOutputStream@stdio@@SAXQAVoutputStream@@@@Z  (Idle)
01:0003F44C ?_getOutputStream@stdio@@SAXPAPAVoutputStream@@@@Z  (Idle)
01:0003F460 ?setErrorStream@stdio@@SAXQAVoutputStream@@@@Z  (Idle)
01:0003F470 ?_getErrorStream@stdio@@SAXPAPAVoutputStream@@@@Z  (Idle)
01:0003F484 ?_class_facts_initializer@stdio@@SGXXZ 
01:0003F4AC ?stdioState@stdio@@SGXQAV0@@@Z  (Idle)
01:0003F4B8 ?stdioState@stdio@@SGQAV0@@XZ  (Idle)
01:0003F4C0 ?new@outputStream_null@@SAXQAV1@@@Z  (Idle)
01:0003F4C8 ?getPosition@outputStream_null@@SGPBUfileSize@fileSystem_api@@QAVstream@@@@Z 
01:0003F4E0 ?setPosition@outputStream_null@@SGXQAVstream@@@PBUfileSize@fileSystem_api@@@Z 
01:0003F4F0 ?getCRLFconversion@outputStream_null@@SGPAUboolean_struct@_builtIn@@QAVstream@@@@Z 
01:0003F508 ?setCRLFconversion@outputStream_null@@SGXQAVstream@@@PAUboolean_struct@_builtIn@@@Z 
01:0003F518 ?close@outputStream_null@@SGXQAVstream@@@@Z 
01:0003F528 ?setMode@outputStream_null@@SGXQAVstream@@@PAUmode_struct@2@@Z 
01:0003F538 ?getMode@outputStream_null@@SGPAUmode_struct@stream@@QAV3@@@Z 
01:0003F550 ?write@outputStream_null@@SAXQAVoutputStream@@@@Z 
01:0003F558 ?writeQuoted@outputStream_null@@SAXQAVoutputStream@@@@Z 
01:0003F560 ?writeBytes@outputStream_null@@SAXQAVoutputStream@@@PAXPBUbyteCount@@@Z 
01:0003F568 ?writef@outputStream_null@@SAXQAVoutputStream@@@PB_W@Z 
01:0003F570 ?nl@outputStream_null@@SAXQAVoutputStream@@@@Z 
01:0003F578 ?save@outputStream_null@@SAXQAVoutputStream@@@PBUfactDB@@@Z 
01:0003F580 ?flush@outputStream_null@@SAXQAVoutputStream@@@@Z 
01:0003F588 ?allowNullPointers@outputStream_null@@SGPAUboolean_struct@_builtIn@@QAVstream@@@@Z 
01:0003F5A0 ?allowNullPointers@outputStream_null@@SGXQAVstream@@@PAUboolean_struct@_builtIn@@@Z 
01:0003F5B0 ?_new@outputStream_null@@SAXPAPAVoutputStream@@@@Z  (Idle)
01:0003F5D8 ?_class_facts_initializer@outputStream_null@@SGXXZ 
01:0003F5FC ?null@outputStream_0@SGQAVoutputStream@@@XZ  (Idle)
01:0003F604 ?new@inputStream_null@@SAXQAV1@@@Z  (Idle)
01:0003F60C ?getPosition@inputStream_null@@SGPBUfileSize@fileSystem_api@@QAVstream@@@@Z 
01:0003F624 ?setPosition@inputStream_null@@SGXQAVstream@@@PBUfileSize@fileSystem_api@@@Z 
01:0003F634 ?getCRLFconversion@inputStream_null@@SGPAUboolean_struct@_builtIn@@QAVstream@@@@Z 
01:0003F64C ?setCRLFconversion@inputStream_null@@SGXQAVstream@@@PAUboolean_struct@_builtIn@@@Z 
01:0003F65C ?close@inputStream_null@@SGXQAVstream@@@@Z 
01:0003F66C ?setMode@inputStream_null@@SGXQAVstream@@@PAUmode_struct@2@@Z 
01:0003F67C ?getMode@inputStream_null@@SGPAUmode_struct@stream@@QAV3@@@Z 
01:0003F694 ?_read@inputStream_null@@SAXQAVinputStream@@@QAVrTypeLibrary@TypeLibraries@RunTime@VIP@@PAPAX@Z 
01:0003F6A4 ?_readBytes@inputStream_null@@SAXQAVinputStream@@@PBUbyteCount@@QAPAE@Z 
01:0003F6B4 ?_readString@inputStream_null@@SAXQAVinputStream@@@PBUcharCount@@PAPB_W@Z 
01:0003F6C4 ?_readChar@inputStream_null@@SAXQAVinputStream@@@PA_W@Z 
01:0003F6D4 ?ungetChar@inputStream_null@@SAXQAVinputStream@@@@Z 
01:0003F6E4 ?_readLine@inputStream_null@@SAXQAVinputStream@@@PAPB_W@Z 
01:0003F6F4 ?_readLineCRLF@inputStream_null@@SAXQAVinputStream@@@PAPB_W@Z 
01:0003F704 ?consult@inputStream_null@@SAXQAVinputStream@@@PBUfactDB@@@Z 
01:0003F714 ?reconsult@inputStream_null@@SAXQAVinputStream@@@PBUfactDB@@@Z 
01:0003F724 ?endOfStream@inputStream_null@@SAXQAVinputStream@@@@Z 
01:0003F72C ?repeatToEndOfStream@inputStream_null@@SAXQAVinputStream@@@@Z 
01:0003F738 ?exhausted@inputStream_null@@SAXXZ 
01:0003F76C ?allowNullPointers@inputStream_null@@SGPAUboolean_struct@_builtIn@@QAVstream@@@@Z 
01:0003F784 ?allowNullPointers@inputStream_null@@SGXQAVstream@@@PAUboolean_struct@_builtIn@@@Z 
01:0003F794 ?_new@inputStream_null@@SAXPAPAVinputStream@@@@Z  (Idle)
01:0003F7BC ?_class_facts_initializer@inputStream_null@@SGXXZ 
01:0003F7E0 ?null@inputStream_0@SGQAVinputStream@@@XZ  (Idle)
01:0003F7F0 stdioState?_initObject@@@QAGXQAV1@H@Z 
01:0003F810 ?@create_object@stdioState@@SGQAV1@@XZ 
01:0003F82C stdioState?_InternalFinalizer@@@QAGXQAV1@@Z 
01:0003F840 outputStream_null?_initObject@@@QAGXQAV1@H@Z 
01:0003F850 ?@create_object@outputStream_null@@SGQAV1@@XZ 
01:0003F86C outputStream_null?_InternalFinalizer@@@QAGXQAV1@@Z 
01:0003F880 inputStream_null?_initObject@@@QAGXQAV1@H@Z 
01:0003F890 ?@create_object@inputStream_null@@SGQAV1@@XZ 
01:0003F8AC inputStream_null?_InternalFinalizer@@@QAGXQAV1@@Z 
--- From 'Obj\string.C639126F.obj'
01:0003F8C0 ?format_exceptionHandler_explicit@string_exception@@SAXPAUprogramPoint_struct@core@@PBUtraceId@5@PB_W@Z 
01:0003F9A8 ?raise_emptyString_explicit@string_exception@@SAXPAUprogramPoint_struct@core@@@Z  (Idle)
01:0003F9C0 ?raise_outOfBoundaries_explicit@string_exception@@SAXPAUprogramPoint_struct@core@@PBUcharCount@@1@Z  (Idle)
01:0003FA88 ?raise_oddOffset_explicit@string_exception@@SAXPAUprogramPoint_struct@core@@PBUbyteCount@@@Z 
01:0003FAFC ?_create@string@@SAXPBUcharCount@@PB_WPAPB_W@Z 
01:0003FB34 ?_length@string@@SAXPB_WAAUcharCount@@@Z 
01:0003FB4C ?_tryCreate@string@@SAXPBUcharCount@@PB_WPAPB_W@Z  (Idle)
01:0003FBA4 ?_createCopy@string@@SAXPB_WPAPB_W@Z 
01:0003FC24 ?hasSuffix@string@@SAXPB_W0PAPB_W@Z  (Idle)
01:0003FC88 ?hasSuffix@string@@SAXPB_W0@Z  (Idle)
01:0003FCE4 ?hasPrefix@string@@SAXPB_W0PAPB_W@Z 
01:0003FD0C ?_hasPrefixPtr@string@@SAXPAUpChar_struct@memory@@0PAPAU23@@Z 
01:0003FDAC ?hasPrefixIgnoreCase@string@@SAXPB_W0PAPB_W@Z  (Idle)
01:0003FDC4 ?hasPrefixIgnoreCase@string@@SAXPB_W0PAPB_WPBUlcId@locale_native@@@Z 
01:0003FE04 ?hasPrefixCaseNeutral@string@@SAXPB_W0PAPB_W@Z  (Idle)
01:0003FE18 ?_concat@string@@SAXPB_W0PAPB_W@Z 
01:0003FE88 ?_concat@string@@SAXPB_W00PAPB_W@Z 
01:0003FF24 ?_concat@string@@SAXPB_W000PAPB_W@Z  (Idle)
01:0003FF4C ?_concat@string@@SAXPB_W0000PAPB_W@Z  (Idle)
01:0003FF6C ?_concat@string@@SAXPB_W00000PAPB_W@Z 
01:00040090 ?_concatList@string@@SAXPAU?$__packedList_struct@U1@@@PAPB_W@Z 
01:00040120 ?_concatWithDelimiter@string@@SAXPAU?$__packedList_struct@U1@@@PB_WPAPB_W@Z  (Idle)
01:00040238 ?concatListWithDelimiter_inner@string@@SAXPAXPAU?$__packedList_struct@U1@@@PAXPBUbyteCount@@PAU?$__packedList_struct@UcharCount@@@@@Z 
01:000402D0 ?_copyDelimiterIfNeeded@string@@SAXPAXPAU?$__packedList_struct@U1@@@PAXPBUbyteCount@@PAPAX@Z 
01:00040304 ?getStringListInfo@string@@SAXPAU?$__packedList_struct@U1@@@PBUpositive@@1AAU3@3PAPAU?$__packedList_struct@UcharCount@@@@@Z 
01:000403A0 ?concatStringList@string@@SAXPAXPAU?$__packedList_struct@U1@@@PAU?$__packedList_struct@UcharCount@@@@@Z 
01:00040440 ?equalCaseNeutral@string@@SAXPB_W0@Z 
01:00040454 ?_compareCaseNeutral@string@@SAXPB_W0PAPAUcompareResult_struct@_builtIn@@@Z  (Idle)
01:00040470 ?equalIgnoreCase@string@@SAXPB_W0@Z  (Idle)
01:0004049C ?equalIgnoreCase@string@@SAXPB_W0PBUlcId@locale_native@@@Z 
01:000404CC ?_compareIgnoreCase@string@@SAXPB_W0PAPAUcompareResult_struct@_builtIn@@@Z 
01:000404F0 ?_compareIgnoreCase@string@@SAXPB_W0PBUlcId@locale_native@@PAPAUcompareResult_struct@_builtIn@@@Z 
01:0004050C ?_compareString@string@@SAXPB_W0PAPAUcompareResult_struct@_builtIn@@@Z  (Idle)
01:00040530 ?_compareString@string@@SAXPB_W0PBUlcId@locale_native@@PAPAUcompareResult_struct@_builtIn@@@Z 
01:0004054C ?_compareString@string@@SAXPB_W0PBUlcId@locale_native@@IPAPAUcompareResult_struct@_builtIn@@@Z 
01:000406F4 ?_adjustRight@string@@SAXPB_WPBUcharCount@@PAPB_W@Z  (Idle)
01:00040714 ?_adjustRight@string@@SAXPB_WPBUcharCount@@0PAPB_W@Z 
01:00040730 ?_adjustRight@string@@SAXPB_WPBUcharCount@@0PAUadjustBehaviour_struct@1@PAPB_W@Z 
01:000407A0 ?_adjustLeft@string@@SAXPB_WPBUcharCount@@PAPB_W@Z  (Idle)
01:000407C0 ?_adjustLeft@string@@SAXPB_WPBUcharCount@@0PAPB_W@Z 
01:000407DC ?_adjust@string@@SAXPB_WPBUcharCount@@PAUadjustSide_struct@1@PAPB_W@Z  (Idle)
01:00040804 ?_adjust@string@@SAXPB_WPBUcharCount@@0PAUadjustSide_struct@1@PAPB_W@Z  (Idle)
01:0004082C ?_adjust@string@@SAXPB_WPBUcharCount@@0PAUadjustBehaviour_struct@1@PAUadjustSide_struct@1@PAPB_W@Z  (Idle)
01:00040854 ?_crop@string@@SAXPB_WPBUcharCount@@PAUadjustSide_struct@1@PAUadjustBehaviour_struct@1@PAPB_W@Z 
01:000408E8 ?_adjustLeft@string@@SAXPB_WPBUcharCount@@0PAUadjustBehaviour_struct@1@PAPB_W@Z 
01:00040948 ?_split@string@@SAXPB_W0PAPAU?$__packedList_struct@U1@@@@Z  (Idle)
01:000409E0 ?format@string@@SAPB_W0@Z 
01:00040A40 ?write@string@@SAPB_WXZ 
01:00040A58 ?_rear@string@@SAXPB_WPBUcharCount@@PAPB_W@Z  (Idle)
01:00040AAC ?_fromPosition@string@@SAXPB_WPBUcharCount@@PAPB_W@Z 
01:00040ADC ?front_wc@string@@SAXPB_WPBUcharCount@@PAPB_W2@Z  (Idle)
01:00040B10 ?front@string@@SAXPB_WPBUcharCount@@PAPB_W2@Z 
01:00040B54 ?tryFront@string@@SAXPB_WPBUcharCount@@PAPB_W2@Z 
01:00040B90 ?checkPosition@string@@SAXPBUcharCount@@PB_W@Z 
01:00040BF4 ?_frontChar@string@@SAXPB_WPA_W@Z 
01:00040C08 ?_tryFrontChar@string@@SAXPB_WPA_W@Z  (Idle)
01:00040C2C ?frontChar_wc@string@@SAXPB_WPA_WPAPB_W@Z  (Idle)
01:00040C4C ?frontChar@string@@SAXPB_WPA_WPAPB_W@Z 
01:00040C64 ?_tryLastChar@string@@SAXPB_WPA_W@Z  (Idle)
01:00040C98 ?lastChar@string@@SAXPB_WPAPB_WPA_W@Z 
01:00040CE8 ?_lastChar@string@@SAXPB_WPA_W@Z 
01:00040D28 ?_truncate@string@@SAXPB_WPBUcharCount@@PAPB_W@Z  (Idle)
01:00040D68 ?_toCharList@string@@SAXPB_WPAPAU?$__packedList_struct@Uchar@@@@@Z  (Idle)
01:00040DD0 ?frontToken@string@@SAXPB_WPAPB_W1@Z 
01:00040DF0 ?isValidToRead@string@@SAXPB_W@Z 
01:00040E04 ?isValidToRead@string@@SAXPB_WPBUcharCount@@@Z 
01:00040E24 ?_replaceFirst@string@@SAXPB_W00PAPB_W@Z  (Idle)
01:00040E40 ?_replaceFirst@string@@SAXPB_W00PAUcaseSensitivity_struct@1@PAPB_W@Z 
01:00040E74 ?_replaceAll@string@@SAXPB_W00PAPB_W@Z 
01:00040E90 ?_replaceAll@string@@SAXPB_W00PAUcaseSensitivity_struct@1@PAPB_W@Z 
01:00040EC4 ?_replaceAll@string@@SAXPB_W00PAUcaseSensitivity_struct@1@PAIPAPB_W@Z  (Idle)
01:00040EFC ?_caseToInteger@string@@SAXPAUcaseSensitivity_struct@1@PAH@Z 
01:00040F2C ?_replacePart@string@@SAXPB_WPBUcharCount@@10PAPB_W@Z  (Idle)
01:00040FEC ?_tryReplacePart@string@@SAXPB_WPBUcharCount@@10PAPB_W@Z  (Idle)
01:000410A4 ?_search@string@@SAXPB_W0AAUcharCount@@@Z  (Idle)
01:000410E0 ?_search@string@@SAXPB_W0PAUcaseSensitivity_struct@1@AAUcharCount@@@Z 
01:000411A0 ?_searchLast@string@@SAXPB_W0PAUcaseSensitivity_struct@1@AAUcharCount@@@Z  (Idle)
01:00041260 ?_subString@string@@SAXPB_WPBUcharCount@@1PAPB_W@Z 
01:000412AC ?_trySubString@string@@SAXPB_WPBUcharCount@@1PAPB_W@Z  (Idle)
01:000412F0 ?_toUpperCase@string@@SAXPB_WPAPB_W@Z 
01:00041314 ?_toLowerCase@string@@SAXPB_WPAPB_W@Z 
01:00041338 ?isUpperCase@string@@SAXPB_W@Z  (Idle)
01:0004136C ?isLowerCase@string@@SAXPB_W@Z  (Idle)
01:000413A0 ?hasDecimalDigits@string@@SAXPB_W@Z  (Idle)
01:000413BC ?isDecimalDigits@string@@SAXPB_W@Z 
01:0004140C ?decimalDigit@string@@SAX_W@Z 
01:00041430 ?hasAlpha@string@@SAXPB_W@Z  (Idle)
01:00041458 ?isWhiteSpace@string@@SAXPB_W@Z  (Idle)
01:00041460 ?_split_delimiter@string@@SAXPB_W0PAPAU?$__packedList_struct@U1@@@@Z  (Idle)
01:0004148C ?_splitByString@string@@SAXPB_W0PBUcharCount@@PAPAU?$__packedList_struct@U1@@@@Z 
01:00041530 ?_split_length@string@@SAXPB_WPAU?$__packedList_struct@UcharCount@@@@PAPAU?$__packedList_struct@U1@@@@Z  (Idle)
01:000415C4 ?_trim@string@@SAXPB_WPAPB_W@Z 
01:000415E8 ?_charToString@string@@SAX_WPAPB_W@Z  (Idle)
01:00041614 ?_charUpper@string@@SAX_WPA_W@Z  (Idle)
01:00041630 ?_charLower@string@@SAX_WPA_W@Z  (Idle)
01:0004164C ?splitStringBySeparators@string@@SAXPB_W0PAPB_WPA_W2@Z 
01:000416AC ?_getMinPosition@string@@SAXPB_W0PBUcharCount@@AAU2@@Z 
01:0004171C ?isName@string@@SAXPB_W@Z  (Idle)
01:00041770 ?isLegalFrontCharOfName@string@@SAX_W@Z 
01:0004179C ?isCorrectRemainderOfName@string@@SAXPB_W@Z 
01:000417EC ?isCorrectRemainderCharOfName@string@@SAX_W@Z 
01:0004183C ?isClassIdentifier@string@@SAXPB_W0@Z  (Idle)
01:000418A8 ?isObjectIdentifier@string@@SAXPB_W0@Z  (Idle)
01:00041924 ?isCorrectMemberName@string@@SAXPB_W@Z 
01:000419B8 ?keywordString@string@@SAXPB_WPAPAUboolean_struct@_builtIn@@@Z 
01:0004226C ?isCorrectClassFrontChar@string@@SAX_W@Z 
01:000422A0 ?_searchChar@string@@SAXPB_W_WAAUcharCount@@@Z 
01:000422C4 ?_searchChar@string@@SAXPB_W_WPAUcaseSensitivity_struct@1@AAUcharCount@@@Z 
01:00042350 ?_subChar@string@@SAXPB_WPBUcharCount@@PA_W@Z 
01:00042388 ?_trySubchar@string@@SAXPB_WPBUcharCount@@PA_W@Z  (Idle)
01:000423BC ?_getCharValue@string@@SAX_WAAUunsigned16@@@Z  (Idle)
--- From 'Obj\string8.ACF7B790.obj'
01:000423D0 ?_getCharFromValue@string@@SAXPBUunsigned16@@PA_W@Z 
--- From 'Obj\string.C639126F.obj'
01:000423E4 ?listToArray@string@@SAXPAU?$__packedList_struct@U1@@@PAPAXPAI@Z  (Idle)
01:00042440 ?_arrayToList@string@@SAXPAXIPAPAU?$__packedList_struct@U1@@@@Z  (Idle)
01:0004244C ?fillArray@string@@SAXPAXPAU?$__packedList_struct@U1@@@@Z 
01:000424B0 ?_fillList@string@@SAXPBUunsignedNative@@IPAPAU?$__packedList_struct@U1@@@@Z 
01:00042510 ?_createFromCharList@string@@SAXPAU?$__packedList_struct@Uchar@@@@PAPB_W@Z  (Idle)
01:00042558 ?fillString@string@@SAXPAXPAU?$__packedList_struct@Uchar@@@@@Z 
01:000425B8 isWhiteSpace_C 
01:000425F8 isWhiteSpace_S 
01:0004264C ?getMetricPrefix@string@@SAXPANPAPANPAPB_W@Z  (Idle)
01:000427C8 ?_toMetricPrefixForm@string@@SAXPBUpositive@@PANPAPB_W@Z  (Idle)
01:00042888 ?getBinaryPrefix@string@@SAXPANPAPANPAPB_W@Z  (Idle)
01:00042974 ?_toBinaryPrefixForm@string@@SAXPBUpositive@@PANPAPB_W@Z  (Idle)
01:00042A34 ?isWhiteSpace@string@@SAX_W@Z  (Idle)
01:00042A3C ?keywordString@string@@SAXPB_WPAUboolean_struct@_builtIn@@@Z  (Idle)
01:000433C4 ?keywordString@string@@SAXPAPB_WPAPAUboolean_struct@_builtIn@@@Z  (Idle)
01:00043AFC ?new@outputStream_string@@SAXQAV1@@@Z  (Idle)
01:00043BDC ?setMode@outputStream_string@@SGXQAVstream@@@PAUmode_struct@2@@Z 
01:00043C24 ?flush@outputStream_string@@SAXQAVoutputStream@@@@Z 
01:00043C2C ?resetString@outputStream_string@@SAXQAV1@@@Z 
01:00043D00 ?close@outputStream_string@@SGXQAVstream@@@@Z 
01:00043D18 ?bufferFullCallBack@outputStream_string@@SAXQAV1@@PAPB_WAAUbyteCount@@@Z  (Idle)
01:00043D94 ?get_buffer_from_db@outputStream_string@@SAXQAV1@@IPAPB_WAAUbyteCount@@@Z 
01:00043DFC ?_getStringLength@outputStream_string@@SAXQAV1@@AAUcharCount@core@@@Z 
01:00043EA0 ?_getString@outputStream_string@@SAXQAV1@@PAPB_W@Z 
01:00043FD0 ?writeBuffersToString@outputStream_string@@SAXQAV1@@PAX@Z 
01:00044060 ?getPosition@outputStream_string@@SGPBUfileSize@fileSystem_api@@QAVstream@@@@Z 
01:00044100 ?setPosition@outputStream_string@@SGXQAVstream@@@PBUfileSize@fileSystem_api@@@Z 
01:00044170 ?checkOddness@outputStream_string@@SAXPAUmode_struct@stream@@PBUbyteCount@@@Z 
01:000441D8 ?handleSetOffset@outputStream_string@@SAXQAV1@@PBUbyteCount@@@Z 
01:00044260 ?updateCurrentBuffer@outputStream_string@@SAXQAV1@@@Z 
01:000443CC ?findBufferForOffset@outputStream_string@@SAXQAV1@@PBUbyteCount@@PAIPAPB_WAAU3@4@Z 
01:00044458 ?handleBiggerOffset@outputStream_string@@SAXQAV1@@PBUbyteCount@@@Z 
01:00044610 ?_newBuffer@outputStream_string@@SAXQAV1@@PBUbyteCount@@PAPB_W@Z 
01:000446A8 ?_getSizeBefore@outputStream_string@@SAXQAV1@@AAUbyteCount@@@Z 
01:00044738 ?bufferNotFound_exception@outputStream_string@@SAXI@Z 
01:00044778 ?checkUsePrevBuff@outputStream_string@@SAXQAV1@@@Z  (Idle)
01:000447D4 ?getBuffer@outputStream_string@@SGXQAVbufferSupport@@@PAPAXAAUbyteCount@@@Z 
01:00044880 ?getBufferLocked@outputStream_string@@SGXQAVbufferSupport@@@PAPAXAAUbyteCount@@@Z 
01:0004489C ?addContentsChangedListener@outputStream_string@@SAXQAV1@@X@Z 
01:00044924 ?removeContentsChangedListener@outputStream_string@@SAXQAV1@@X@Z 
01:000449D8 ?onWrite@outputStream_string@@SAXQAV1@@QAVoutputSupport@@@@Z 
01:00044A58 ?_getString@outputStream_string@@SAXXPAPB_W@Z 
01:00044AAC ?anonymous$c0$1$getstring/2nf$outputStream_string@1@SAXPAUanonymous$c0$1$getstring/2nf$outputStream_stringc_struct@1@QAVoutputStream@@@@Z 
01:00044AE0 ?_getString@outputStream_string@@SAXQAVrTypeLibrary@TypeLibraries@RunTime@VIP@@XPAXPAPB_W@Z 
01:00044B28 ?anonymous$c0$1$getstring/3nf$outputStream_string@1@SAXPAUanonymous$c0$1$getstring/3nf$outputStream_stringc_struct@1@QAVoutputStream@@@@Z 
01:00044B64 ?_getString@outputStream_string@@SAXQAVrTypeLibrary@TypeLibraries@RunTime@VIP@@0XPAXPAXPAPB_W@Z  (Idle)
01:00044BB8 ?anonymous$c0$1$getstring/4nf$outputStream_string@1@SAXPAUanonymous$c0$1$getstring/4nf$outputStream_stringc_struct@1@QAVoutputStream@@@@Z 
01:00044BFC ?_getString@outputStream_string@@SAXQAVrTypeLibrary@TypeLibraries@RunTime@VIP@@00XPAXPAXPAXPAPB_W@Z  (Idle)
01:00044C5C ?anonymous$c0$1$getstring/5nf$outputStream_string@1@SAXPAUanonymous$c0$1$getstring/5nf$outputStream_stringc_struct@1@QAVoutputStream@@@@Z 
01:00044CAC ?_getString@outputStream_string@@SAXQAVrTypeLibrary@TypeLibraries@RunTime@VIP@@000XPAXPAXPAXPAXPAPB_W@Z  (Idle)
01:00044D18 ?_new@outputStream_string@@SAXPAPAV1@@@Z 
01:00044D40 ?_object_facts_initializer@outputStream_string@@SGXQAV1@@@Z 
01:00044D60 ?new@inputStream_string@@SAXQAV1@@PB_W@Z  (Idle)
01:00044DB4 ?setMode@inputStream_string@@SGXQAVstream@@@PAUmode_struct@2@@Z 
01:00044DFC ?close@inputStream_string@@SGXQAVstream@@@@Z 
01:00044E14 ?getCRLFconversion@inputStream_string@@SGPAUboolean_struct@_builtIn@@QAVstream@@@@Z 
01:00044E2C ?setCRLFconversion@inputStream_string@@SGXQAVstream@@@PAUboolean_struct@_builtIn@@@Z 
01:00044E54 ?getPosition@inputStream_string@@SGPBUfileSize@fileSystem_api@@QAVstream@@@@Z 
01:00044E78 ?setPosition@inputStream_string@@SGXQAVstream@@@PBUfileSize@fileSystem_api@@@Z 
01:00044EF0 ?checkOddness@inputStream_string@@SAXPAUmode_struct@stream@@PBUbyteCount@core@@@Z 
01:00044F58 ?getBuffer@inputStream_string@@SGXQAVbufferSupport@@@PAPAXAAUbyteCount@@@Z 
01:00044F74 ?getBufferLocked@inputStream_string@@SGXQAVbufferSupport@@@PAPAXAAUbyteCount@@@Z 
01:00044F90 ?_new@inputStream_string@@SAXPB_WPAPAVinputStream@@@@Z  (Idle)
01:00044FB8 ?_object_facts_initializer@inputStream_string@@SGXQAV1@@@Z 
01:000451EC outputStream_string?_initObject@@@QAGXQAV1@H@Z 
01:00045224 ?@create_object@outputStream_string@@SGQAV1@@XZ 
01:00045240 outputStream_string?_InternalFinalizer@@@QAGXQAV1@@Z 
01:000454DC inputStream_string?_initObject@@@QAGXQAV1@H@Z 
01:00045510 ?@create_object@inputStream_string@@SGQAV1@@XZ 
01:0004552C inputStream_string?_InternalFinalizer@@@QAGXQAV1@@Z 
--- From 'Obj\string8.ACF7B790.obj'
01:00045540 ?isValidCodePage@string8@@SAXPBUcodePage@@@Z  (Idle)
01:0004555C ?isValidToRead@string8@@SAXPAD@Z  (Idle)
01:0004557C ?_fromUtf8@string8@@SAXPADPAPB_W@Z  (Idle)
01:00045598 ?_fromUtf8@string8@@SAXPADPBUbyteCountOptional@@PAPB_W@Z  (Idle)
01:000455C0 ?_toUtf8@string8@@SAXPB_WPAPAD@Z  (Idle)
01:000455DC ?_mapFromString@string8@@SAXPB_WPAPAD@Z 
01:000455F8 ?_mapFromString@string8@@SAXPB_WPBUcodePage@@PAPAD@Z 
01:00045664 ?_mapToString@string8@@SAXPADPAPB_W@Z  (Idle)
01:00045680 ?_mapToString@string8@@SAXPADPBUcodePage@@PAPB_W@Z 
01:0004569C ?_mapToString@string8@@SAXPADPBUcodePage@@PBUbyteCountOptional@@PAPB_W@Z 
01:00045794 ?_mapFromChar@string8@@SAX_WAAUchar8@@@Z  (Idle)
01:000457B0 ?_mapFromChar@string8@@SAX_WPBUcodePage@@AAUchar8@@@Z 
01:00045828 ?_mapToChar@string8@@SAXPBUchar8@@PA_W@Z  (Idle)
01:00045844 ?_mapToChar@string8@@SAXPBUchar8@@PBUcodePage@@PA_W@Z 
01:000458C0 ?_createCopy@string8@@SAXPADPAPAD@Z 
01:00045920 ?_createCopy@string8@@SAXPADPBUbyteCount@@PAPAD@Z 
01:00045970 ?_tryFrontChar@string8@@SAXPADPAPADPA_W@Z  (Idle)
01:0004598C ?_tryFrontChar@string8@@SAXPADPAPADPBUcodePage@@PA_W@Z 
01:00045A60 ?_tryFrontChar_utf8@string8@@SAXPADPAPADPA_W@Z 
01:00045ABC ?_tryFrontChar_utf82@string8@@SAXPBUchar8@@PADPAPADPAI@Z 
01:00045D9C ?_tryGetIntermediateUtf8@string8@@SAXIPADPAPADPAI@Z 
01:00045E44 ?_tryGetFirstByte@string8@@SAXPADPAPADAAUchar8@@@Z 
001000:044E70 0001E0   .text$mn::CODE::<no group> F=4
--- From '..\..\..\_intermediate\sourceVS\vipInit\Win32\ReleasePE\VIPMain.obj'
01:00045E70 _VIPStartUp@0  (Idle)
--- From '..\..\..\_intermediate\sourceVS\vipInit\Win32\ReleasePE\VIPDll.obj'
01:00045EE0 ?VIPDllGetHandleModule@RunTime@VIP@@YAPAXXZ 
01:00045EF0 ?tryCallHook@VIPDllHook@RunTime@VIP@@QBEHPAXK0@Z 
01:00045F30 _VIPDllMain@12  (Idle)
01:00046010 _VIPSetDllHook@4  (Idle)
--- From '..\..\..\_intermediate\sourceVS\vipInit\Win32\ReleasePE\VIPPE.obj'
01:00046030 ?VIP_PE_Dialog@@YAXXZ 
Frame 047000   Size 02F7C0.  Name=<  .rdata>, 	Chars=40000040h. [IR]
047000:000000 004570   VIPConst::VIPConst::.rdata F=4
--- From 'Obj\filesystem_api.D2434073.obj'
02:00047090 $cannotCreate$fileSystem_api_class$constant$ 
02:00047110 $cannotGetFileSize$fileSystem_api_class$constant$ 
02:000471A4 $cannotSetFilePointer$fileSystem_api_class$constant$ 
--- From 'Obj\time_api.1A6CCE63.obj'
02:00047264 $cannotGetDateTimeFormat$time_api_class$constant$ 
02:000472E8 $cannotGetLocaleInfo$time_api_class$constant$ 
--- From 'Obj\binary.A4D00680.obj'
02:00047390 $invalidCompressionFormat$binary_exception_class$constant$ 
02:00047418 $internalDecodeError$binary_exception_class$constant$ 
02:000474AC $indexOutOfRange$binary_exception_class$constant$ 
02:00047540 $wrongBinaryFormat$binary_exception_class$constant$ 
--- From 'Obj\exception.B3237F89.obj'
02:000475B8 $systemException$runtime_exception_class$constant$ 
02:0004763C $realOverflow$runtime_exception_class$constant$ 
02:000476D0 $realDivideByZero$runtime_exception_class$constant$ 
02:00047754 $arithmeticOverflow$runtime_exception_class$constant$ 
02:00047820 $mismatchVersion$runtime_exception_class$constant$ 
02:00047898 $osError$runtime_exception_class$constant$ 
02:00047928 $cannotLoadLibrary$runtime_exception_class$constant$ 
02:000479F0 $cannotGetProcAddress$runtime_exception_class$constant$ 
02:00047A78 $gcAbend$runtime_exception_class$constant$ 
02:00047B04 $gcError$runtime_exception_class$constant$ 
02:00047B6C $heapOverflow$runtime_exception_class$constant$ 
02:00047BF8 $invalidTerm$runtime_exception_class$constant$ 
02:00047CC0 $noRangeNumber$runtime_exception_class$constant$ 
02:00047D78 $fromString$runtime_exception_class$constant$ 
02:00047E38 $fromBinary$runtime_exception_class$constant$ 
02:00047EBC $negZero$runtime_exception_class$constant$ 
02:00047F64 $objectConversion$runtime_exception_class$constant$ 
02:00047FEC $cyclicInheritance$runtime_exception_class$constant$ 
02:0004808C $functorNotFound$runtime_exception_class$constant$ 
02:00048148 $determFact$runtime_exception_class$constant$ 
02:000481E8 $invalidFormat$runtime_exception_class$constant$ 
02:00048288 $unsupportedFormat$runtime_exception_class$constant$ 
02:00048360 $wrongNumberArgumentForFormat$runtime_exception_class$constant$ 
02:0004841C $integerExpected$runtime_exception_class$constant$ 
02:000484B0 $parserUnexpectedEOS$runtime_exception_class$constant$ 
02:00048530 $unGetChar$runtime_exception_class$constant$ 
02:000485C0 $vip6runInternalError$runtime_exception_class$constant$ 
02:0004868C $invalidTermRepresentation$runtime_exception_class$constant$ 
02:0004870C $consult_WrongComment$runtime_exception_class$constant$ 
02:000487AC $consult_WrongUsageOfKeyword$runtime_exception_class$constant$ 
02:00048864 $retractSingleFact$runtime_exception_class$constant$ 
02:0004890C $expectedChar$runtime_exception_class$constant$ 
02:00048994 $freeVariable$runtime_exception_class$constant$ 
02:00048A24 $singleFactHasNoValue$runtime_exception_class$constant$ 
02:00048AD4 $valueCannotBeConvertedToType$runtime_exception_class$constant$ 
02:00048B54 $mustUnifyFailed$runtime_exception_class$constant$ 
02:00048BFC $accessToNotInitializedFact$runtime_exception_class$constant$ 
02:00048C88 $chainDB_DBAlreadyOpen$runtime_exception_class$constant$ 
02:00048D2C $chainDB_InvalidDBFileName$runtime_exception_class$constant$ 
02:00048DB0 $chainDB_NotOpenDB$runtime_exception_class$constant$ 
02:00048E38 $chainDB_ExistsBTree$runtime_exception_class$constant$ 
02:00048F00 $chainDB_ExistsDBInPlace$runtime_exception_class$constant$ 
02:00048F90 $chainDB_InvalidOrderValue$runtime_exception_class$constant$ 
02:00049028 $chainDB_InvalidKeyValue$runtime_exception_class$constant$ 
02:000490D4 $chainDB_UnableOpenDB$runtime_exception_class$constant$ 
02:00049158 $chainDB_InvalidDB$runtime_exception_class$constant$ 
02:000491E8 $chainDB_UnableDeleteDB$runtime_exception_class$constant$ 
02:00049274 $chainDB_InvalidRefVal$runtime_exception_class$constant$ 
02:000492F4 $chainDB_AbsentChain$runtime_exception_class$constant$ 
02:00049370 $chainDB_AbsentBTree$runtime_exception_class$constant$ 
02:00049404 $chainDB_InvalidBTreeSel$runtime_exception_class$constant$ 
02:0004949C $chainDB_DeleteOpenBTree$runtime_exception_class$constant$ 
02:0004954C $chainDB_NotFoundKeyAndRef$runtime_exception_class$constant$ 
02:000495E8 $chainDB_IncorrectDBVersion$runtime_exception_class$constant$ 
02:00049688 $chainDB_NotInTransaction$runtime_exception_class$constant$ 
02:00049768 $chainDB_WriteROTransaction$runtime_exception_class$constant$ 
02:00049820 $chainDB_AlreadyOpenTransaction$runtime_exception_class$constant$ 
02:000498F0 $chainDB_UpdatingROTransaction$runtime_exception_class$constant$ 
02:00049998 $chainDB_TimeOutTransaction$runtime_exception_class$constant$ 
02:00049A4C $chainDB_DuplicateKey$runtime_exception_class$constant$ 
02:00049B30 $chainDB_WrongChainToDeleteTerm$runtime_exception_class$constant$ 
02:00049C08 $chainDB_ReadWrongNumberBytes$runtime_exception_class$constant$ 
02:00049CE4 $chainDB_WriteWrongNumberBytes$runtime_exception_class$constant$ 
02:00049D74 $chainDB_OSNativeError$runtime_exception_class$constant$ 
02:00049DEC $binary_invalidBlock$runtime_exception_class$constant$ 
02:00049E7C $binary_invalidFormat$runtime_exception_class$constant$ 
02:00049F2C $binary_DecodeInternalError$runtime_exception_class$constant$ 
02:00049FE4 $odbc_unidentifiedError$runtime_exception_class$constant$ 
02:0004A0E0 $sql_invalidHandle$runtime_exception_class$constant$ 
02:0004A1B8 $sql_stillExecuting$runtime_exception_class$constant$ 
02:0004A250 $sql_needData$runtime_exception_class$constant$ 
02:0004A2C0 $sql_noDataFound$runtime_exception_class$constant$ 
02:0004A370 $sql_error$runtime_exception_class$constant$ 
02:0004A400 $odbc_error$runtime_exception_class$constant$ 
02:0004A49C $externalError$exception_exception_class$constant$ 
02:0004A524 $internal$exception_class$constant$ 
02:0004A5A4 $couldNotCreate$exception_class$constant$ 
02:0004A618 $removeListener$exception_class$constant$ 
--- From 'Obj\filesystem.AD950C87.obj'
02:0004A6B0 $nativeCallException$exception_class$constant$ 
--- From 'Obj\exception.B3237F89.obj'
02:0004A72C $unsupportedPredicate$exception_class$constant$ 
02:0004A7A8 $overloadingExpected$exception_class$constant$ 
02:0004A83C $exceptionInListener$exception_class$constant$ 
02:0004A8DC $unknown$exception_class$constant$ 
--- From 'Obj\filesystem.AD950C87.obj'
02:0004A968 $fileAlreadyExists$fileSystem_exception_class$constant$ 
02:0004A9FC $wrongAttribute$fileSystem_exception_class$constant$ 
02:0004AAC8 $fileTooBig$fileSystem_exception_class$constant$ 
--- From 'Obj\math.FC1B1006.obj'
02:0004AB80 $asinOutOfBounds$math_exception_class$constant$ 
02:0004AC2C $acoshOutOfBounds$math_exception_class$constant$ 
02:0004ACE4 $atanhOutOfBounds$math_exception_class$constant$ 
02:0004AD9C $acotanhOutOfBounds$math_exception_class$constant$ 
02:0004AE34 $cotanhInfinityResult$math_exception_class$constant$ 
--- From 'Obj\namedvalue.9E6FA98D.obj'
02:0004AEB8 $nameNotInMap$namedValue_class$constant$ 
--- From 'Obj\registry.9E3F9277.obj'
02:0004AF5C $wrongValue$registry_exception_class$constant$ 
02:0004AFCC $noPath$registry_exception_class$constant$ 
02:0004B05C $cannotCreateKey$registry_exception_class$constant$ 
--- From 'Obj\stream.6FDF4122.obj'
02:0004B0C8 $endOfStream$stream_exception_class$constant$ 
02:0004B194 $notSupportedProperty$stream_exception_class$constant$ 
02:0004B234 $noCRLFconversion$stream_exception_class$constant$ 
02:0004B2D4 $wrongMode$stream_exception_class$constant$ 
02:0004B364 $noStream$stream_exception_class$constant$ 
--- From 'Obj\string.C639126F.obj'
02:0004B3F8 $emptyString$string_exception_class$constant$ 
02:0004B4BC $outOfBoundaries$string_exception_class$constant$ 
02:0004B560 $oddOffset$string_exception_class$constant$ 
047000:004570 00B220   .rdata::.rdata::.rdata F=4
--- From 'Obj\runtime_api.77D75C02.obj'
02:0004EEEC v$$_determineOSV5@runtime_api@@SAXIIPBUunsigned16@@PAPB_W@Z$systemname$1$::string  (Idle)
02:0004EEF0 v$$_determineOSV5@runtime_api@@SAXIIPBUunsigned16@@PAPB_W@Z$systemname$2$::string  (Idle)
02:0004EF94 v$$_determineOSV4@runtime_api@@SAXIIPBUunsigned16@@PAPB_W@Z$systemname$1$::string  (Idle)
02:0004F14C v$$_determineOSV6@runtime_api@@SAXIIPBUunsigned16@@PAPB_W@Z$edition$1$::string  (Idle)
02:0004F150 v$$_determineOSV6@runtime_api@@SAXIIPBUunsigned16@@PAPB_W@Z$edition$2$::string  (Idle)
--- From '..\..\..\_intermediate\sourceVS\vipInit\Win32\ReleasePE\VIPDll.obj'
02:00050D08 _VIPStartOfDictionary 
--- From 'Obj\exception.B3237F89.obj'
02:00052C08 v$$_getTrapInformationObject@exception@@SAXPBUtraceId@@PAPAVtrapInformationObject@@@@Z$externalexception$1$core::exception  (Idle)
--- From '..\..\..\_intermediate\sourceVS\vipInit\Win32\ReleasePE\VIPPE.obj'
02:000566E0 ??_C@_0L@DLNDOIBH@Attention?$CB?$AA@ 
02:000566F0 ??_C@_0JO@IKLJBBEK@This?5application?5is?5created?5with@ 
047000:00F790 003410   VIPInter::VIPInter::.rdata F=4
--- From 'Obj\string.C639126F.obj'
02:00056790 interface$object 
--- From 'Obj\std.8408A9CC.obj'
02:000567D0 $object$_global_class$0$domain$ 
02:00056800 interface$disposable 
02:00056860 $disposable$_global_class$0$domain$ 
--- From 'Obj\inputstreamsupport.CF2B28B0.obj'
02:00056890 interface$event0{@Source} 
02:00056900 $event0{@Source}$_global_class$1$domain$ 
02:00056930 $listener$event0{@Source}_interface$0$domain$ 
02:00056960 interface$event1{@Source,@Type1} 
02:000569E0 $event1{@Source,@Type1}$_global_class$2$domain$ 
02:00056A10 $listener$event1{@Source,@Type1}_interface$0$domain$ 
02:00056A40 interface$event2{@Source,@Type1,@Type2} 
02:00056AD0 $event2{@Source,@Type1,@Type2}$_global_class$3$domain$ 
02:00056B00 $listener$event2{@Source,@Type1,@Type2}_interface$0$domain$ 
02:00056B30 interface$event3{@Source,@Type1,@Type2,@Type3} 
02:00056BD0 $event3{@Source,@Type1,@Type2,@Type3}$_global_class$4$domain$ 
02:00056C00 $listener$event3{@Source,@Type1,@Type2,@Type3}_interface$0$domain$ 
02:00056C30 interface$event4{@Source,@Type1,@Type2,@Type3,@Type4} 
02:00056CE0 $event4{@Source,@Type1,@Type2,@Type3,@Type4}$_global_class$5$domain$ 
02:00056D10 $listener$event4{@Source,@Type1,@Type2,@Type3,@Type4}_interface$0$domain$ 
02:00056D40 interface$event5{@Source,@Type1,@Type2,@Type3,@Type4,@Type5} 
02:00056DF0 $event5{@Source,@Type1,@Type2,@Type3,@Type4,@Type5}$_global_class$6$domain$ 
02:00056E20 $listener$event5{@Source,@Type1,@Type2,@Type3,@Type4,@Type5}_interface$0$domain$ 
02:00056E50 interface$event6{@Source,@Type1,@Type2,@Type3,@Type4,@Type5,@Type6} 
02:00056F10 $event6{@Source,@Type1,@Type2,@Type3,@Type4,@Type5,@Type6}$_global_class$7$domain$ 
02:00056F40 $listener$event6{@Source,@Type1,@Type2,@Type3,@Type4,@Type5,@Type6}_interface$0$domain$ 
02:00056F70 interface$event7{@Source,@Type1,@Type2,@Type3,@Type4,@Type5,@Type6,@Type7} 
02:00057040 $event7{@Source,@Type1,@Type2,@Type3,@Type4,@Type5,@Type6,@Type7}$_global_class$8$domain$ 
02:00057070 $listener$event7{@Source,@Type1,@Type2,@Type3,@Type4,@Type5,@Type6,@Type7}_interface$0$domain$ 
02:000570A0 interface$errorDescriptorInformation 
02:00057150 $errorDescriptorInformation$_global_class$0$domain$ 
02:000571A0 interface$trapInformationObject 
02:00057240 $trapInformationObject$_global_class$0$domain$ 
02:00057290 interface$weakPointer 
02:00057300 $weakPointer$_global_class$0$domain$ 
02:00057330 interface$weakReference{@Type} 
02:000573C0 $weakReference{@Type}$_global_class$1$domain$ 
--- From 'Obj\std.8408A9CC.obj'
02:00057400 interface$runtimeLinknamesKernel 
02:00057490 $runtimeLinknamesKernel$_global_class$0$domain$ 
02:000574E0 interface$runtimeLinkNamesRun 
02:00057560 $runtimeLinkNamesRun$_global_class$0$domain$ 
--- From 'Obj\arraym_inline.0A13D119.obj'
02:000575A0 interface$varM{@Term} 
02:00057600 $varM{@Term}$_global_class$1$domain$ 
02:00057630 interface$varM_boolean 
02:000576A0 $varM_boolean$_global_class$0$domain$ 
02:000576E0 interface$varM_integer 
02:00057750 $varM_integer$_global_class$0$domain$ 
02:00057790 interface$varM_optional{@Value} 
02:00057820 $varM_optional{@Value}$_global_class$1$domain$ 
02:00057860 interface$varM_unsigned 
02:000578E0 $varM_unsigned$_global_class$0$domain$ 
--- From 'Obj\exception.B3237F89.obj'
02:00057920 interface$outputStream_binary 
02:000579B0 $outputStream_binary$_global_class$0$domain$ 
--- From 'Obj\string.C639126F.obj'
02:000579F0 interface$bufferSupport 
--- From 'Obj\inputstreamsupport.CF2B28B0.obj'
02:00057A70 $bufferSupport$_global_class$0$domain$ 
02:00057AC0 $offsetPtr$bufferSupport_interface$0$domain$ 
--- From 'Obj\string.C639126F.obj'
02:00057B10 interface$inputStream 
02:00057B80 $inputStream$_global_class$0$domain$ 
02:00057BB0 interface$outputStream 
--- From 'Obj\stream.6FDF4122.obj'
02:00057C30 $outputStream$_global_class$0$domain$ 
--- From 'Obj\inputstreamsupport.CF2B28B0.obj'
02:00057C70 $outputSerializer$outputStream_interface$0$domain$ 
--- From 'Obj\stream.6FDF4122.obj'
02:00057CB0 interface$stdioState 
02:00057D20 $stdioState$_global_class$0$domain$ 
--- From 'Obj\string.C639126F.obj'
02:00057D50 interface$stream 
--- From 'Obj\inputstreamsupport.CF2B28B0.obj'
02:00057DB0 $stream$_global_class$0$domain$ 
02:00057E20 $mode$stream_interface$0$domain$ 
--- From 'Obj\string.C639126F.obj'
02:00057E80 interface$outputStream_string 
02:00057F10 $outputStream_string$_global_class$0$domain$ 
02:00057F50 $contentsChangedListener$outputStream_string_interface$0$domain$ 
--- From 'Obj\inputstreamsupport.CF2B28B0.obj'
02:00057FA0 interface$inputBuffer 
02:00058040 $inputBuffer$_global_class$0$domain$ 
--- From 'Obj\string.C639126F.obj'
02:00058070 interface$inputSupport 
--- From 'Obj\inputstreamsupport.CF2B28B0.obj'
02:00058110 $inputSupport$_global_class$0$domain$ 
02:00058150 interface$outputBuffer 
02:000581F0 $outputBuffer$_global_class$0$domain$ 
--- From 'Obj\string.C639126F.obj'
02:00058230 interface$outputSupport 
--- From 'Obj\outputstreamsupport.DD5669F3.obj'
02:000582D0 $outputSupport$_global_class$0$domain$ 
--- From 'Obj\list.50589F40.obj'
02:00058310 interface$collection{@Type} 
02:00058390 $collection{@Type}$_global_class$1$domain$ 
--- From 'Obj\arraym_inline.0A13D119.obj'
02:000583C0 interface$arrayM_inline{@ItemType} 
02:00058480 $arrayM_inline{@ItemType}$_global_class$1$domain$ 
--- From 'Obj\list.50589F40.obj'
02:000584C0 interface$map{@Key,@Data} 
02:00058530 $map{@Key,@Data}$_global_class$2$domain$ 
02:00058550 interface$mapM{@Key,@Data} 
02:000585D0 $mapM{@Key,@Data}$_global_class$2$domain$ 
02:00058600 interface$mapP{@Self,@Key,@Data} 
02:00058680 $mapP{@Self,@Key,@Data}$_global_class$3$domain$ 
02:000586B0 interface$modifiable{@Type} 
02:00058730 $modifiable{@Type}$_global_class$1$domain$ 
02:00058760 interface$multiMapM{@Key,@Data} 
02:000587F0 $multiMapM{@Key,@Data}$_global_class$2$domain$ 
02:00058820 interface$persistent{@Self,@Type} 
02:000588B0 $persistent{@Self,@Type}$_global_class$2$domain$ 
02:000588E0 interface$queueM{@Type} 
02:00058950 $queueM{@Type}$_global_class$1$domain$ 
02:00058980 interface$queueP{@Self,@Type} 
02:00058A00 $queueP{@Self,@Type}$_global_class$2$domain$ 
02:00058A30 interface$set{@Type} 
02:00058AA0 $set{@Type}$_global_class$1$domain$ 
02:00058AC0 interface$setM{@Type} 
02:00058B30 $setM{@Type}$_global_class$1$domain$ 
02:00058B60 interface$setP{@Self,@Type} 
02:00058BE0 $setP{@Self,@Type}$_global_class$2$domain$ 
--- From 'Obj\filesystem.AD950C87.obj'
02:00058C10 interface$iStream_native 
02:00058CD0 $iStream_native$_global_class$0$domain$ 
02:00058D10 interface$iUnknown 
02:00058DB0 $iUnknown$_global_class$0$domain$ 
--- From 'Obj\mapmsupport.A422FE9A.obj'
02:00058DE0 interface$collectionSupport\collectionSite{@Type} 
--- From 'Obj\mapm_redblack.88A5A755.obj'
02:00058EC0 $collectionSupport\collectionSite{@Type}$_global_class$1$domain$ 
--- From 'Obj\mapmsupport.A422FE9A.obj'
02:00058F20 interface$collectionSupport\collectionSupport{@Type} 
--- From 'Obj\mapm_redblack.88A5A755.obj'
02:00059010 $collectionSupport\collectionSupport{@Type}$_global_class$1$domain$ 
--- From 'Obj\mapmsupport.A422FE9A.obj'
02:00059070 interface$collectionSupportM\collectionMsite{@Type} 
--- From 'Obj\collectionmsupport.64B31F2A.obj'
02:00059170 $collectionSupportM\collectionMsite{@Type}$_global_class$1$domain$ 
--- From 'Obj\mapmsupport.A422FE9A.obj'
02:000591D0 interface$collectionSupportM\collectionMsupport{@Type} 
--- From 'Obj\collectionmsupport.64B31F2A.obj'
02:000592D0 $collectionSupportM\collectionMsupport{@Type}$_global_class$1$domain$ 
--- From 'Obj\mapm_redblack.88A5A755.obj'
02:00059340 interface$collectionSupportM\mapMSite{@Key,@Data} 
--- From 'Obj\mapmsupport.A422FE9A.obj'
02:00059420 $collectionSupportM\mapMSite{@Key,@Data}$_global_class$2$domain$ 
02:00059470 interface$mapMSupport{@Key,@Data} 
02:00059530 $mapMSupport{@Key,@Data}$_global_class$2$domain$ 
--- From 'Obj\core.9A8E3854.obj'
02:00059560 interface$resourceIdentifiers 
02:000595E0 $resourceIdentifiers$_global_class$0$domain$ 
--- From 'Obj\reflection.9A16C2FF.obj'
02:00059620 interface$pfc\reflection\functorDescriptor 
02:000596F0 $pfc\reflection\functorDescriptor$_global_class$0$domain$ 
02:00059750 interface$pfc\reflection\scopeDescriptor 
02:00059810 $pfc\reflection\scopeDescriptor$_global_class$0$domain$ 
02:00059892 $scopeKind$pfc\reflection\scopeDescriptor_interface$0$domain$ 
02:00059930 interface$pfc\reflection\typeLibrary 
02:000599E0 $pfc\reflection\typeLibrary$_global_class$0$domain$ 
02:00059A30 $wrapPresenter$pfc\reflection\typeLibrary_interface$0$domain$ 
02:00059A70 interface$pfc\reflection\typeLibrary_functor 
02:00059B40 $pfc\reflection\typeLibrary_functor$_global_class$0$domain$ 
047000:012BA0 002100   VIPTypeL::VIPTypeL::.rdata F=4
--- From 'Obj\string.C639126F.obj'
02:00059BA0 $unsigned$_builtIn_class$0$domain$$type_library$ 
--- From 'Obj\outputstreamsupport.DD5669F3.obj'
02:00059BB0 $integer$_builtIn_class$0$domain$$type_library$ 
02:00059BC0 $boolean$_builtIn_class$0$domain$$type_library$ 
--- From 'Obj\memory.89ECA104.obj'
02:00059BD0 $handle$_builtIn_class$0$domain$$type_library$ 
--- From 'Obj\std.8408A9CC.obj'
02:00059BE0 $object$_global_class$0$domain$$type_library$ 
02:00059BF0 $disposable$_global_class$0$domain$$type_library$ 
--- From 'Obj\inputstreamsupport.CF2B28B0.obj'
02:00059C00 $listener$event0{@Source}_interface$0$domain$$type_library$ 
02:00059C10 $listener$event1{@Source,@Type1}_interface$0$domain$$type_library$ 
02:00059C20 $listener$event2{@Source,@Type1,@Type2}_interface$0$domain$$type_library$ 
02:00059C30 $listener$event3{@Source,@Type1,@Type2,@Type3}_interface$0$domain$$type_library$ 
02:00059C40 $listener$event4{@Source,@Type1,@Type2,@Type3,@Type4}_interface$0$domain$$type_library$ 
02:00059C50 $listener$event5{@Source,@Type1,@Type2,@Type3,@Type4,@Type5}_interface$0$domain$$type_library$ 
02:00059C60 $listener$event6{@Source,@Type1,@Type2,@Type3,@Type4,@Type5,@Type6}_interface$0$domain$$type_library$ 
02:00059C70 $listener$event7{@Source,@Type1,@Type2,@Type3,@Type4,@Type5,@Type6,@Type7}_interface$0$domain$$type_library$ 
02:00059C80 $errorDescriptorInformation$_global_class$0$domain$$type_library$ 
02:00059C90 $trapInformationObject$_global_class$0$domain$$type_library$ 
02:00059CA0 $weakPointer$_global_class$0$domain$$type_library$ 
--- From 'Obj\std.8408A9CC.obj'
02:00059CB0 $runtimeLinknamesKernel$_global_class$0$domain$$type_library$ 
02:00059CC0 $runtimeLinkNamesRun$_global_class$0$domain$$type_library$ 
--- From 'Obj\arraym_inline.0A13D119.obj'
02:00059CD0 $varM_boolean$_global_class$0$domain$$type_library$ 
02:00059CE0 $varM_integer$_global_class$0$domain$$type_library$ 
02:00059CF0 $varM_unsigned$_global_class$0$domain$$type_library$ 
--- From 'Obj\varm.40D08892.obj'
02:00059D00 $reference$varM_reference{@Term}_class$0$domain$$type_library$ 
02:00059D10 $varM_reference@objectDB$varM_reference{@Term}_implement$0$domain$$type_library$ 
02:00059D20 $varm_reference$typeLibDB$varM_reference{@Term}_implement$0$domain$$type_library$ 
02:00059D30 $varm_optional$typeLibDB$varM_optional{@Term}_implement$0$domain$$type_library$ 
02:00059D40 $varM@objectDB$varM{@Term}_implement$0$domain$$type_library$ 
02:00059D50 $varm$typeLibDB$varM{@Term}_implement$0$domain$$type_library$ 
02:00059D60 $anonymous$o0$1$newmodel_unary/2np$varM{@Term}$varM{@Term}_implement$0$domain$$type_library$ 
02:00059D70 $anonymous$o0$2$newmodel_unary/2np$varM{@Term}$varM{@Term}_implement$0$domain$$type_library$ 
02:00059D80 $anonymous$o0$1$newmodel_binary/3np$varM{@Term}$varM{@Term}_implement$0$domain$$type_library$ 
02:00059D90 $anonymous$o0$2$newmodel_binary/3np$varM{@Term}$varM{@Term}_implement$0$domain$$type_library$ 
--- From 'Obj\systeminformation_api.344506F5.obj'
02:00059DA0 $logfont$gui_native_class$0$domain$$type_library$ 
--- From 'Obj\gui_api.660F5D37.obj'
02:00059DB0 $pnt$vpiDomains_class$0$domain$$type_library$ 
--- From 'Obj\shell_api.FFCE11BE.obj'
02:00059DC0 $rct$vpiDomains_class$0$domain$$type_library$ 
--- From 'Obj\vpidomains.05891DA9.obj'
02:00059DD0 $brush$vpiDomains_class$0$domain$$type_library$ 
02:00059DE0 $pen$vpiDomains_class$0$domain$$type_library$ 
02:00059DF0 $drawtools$vpiDomains_class$0$domain$$type_library$ 
02:00059E00 $menu$vpiDomains_class$0$domain$$type_library$ 
02:00059E10 $keyModifier$vpiDomains_class$0$domain$$type_library$ 
02:00059E20 $acceleratorKey$vpiDomains_class$0$domain$$type_library$ 
02:00059E30 $menuItem$vpiDomains_class$0$domain$$type_library$ 
02:00059E40 $event$vpiDomains_class$0$domain$$type_library$ 
02:00059E50 $controlInfo$vpiDomains_class$0$domain$$type_library$ 
02:00059E60 $stateInfo$vpiDomains_class$0$domain$$type_library$ 
02:00059E70 $windef$vpiDomains_class$0$domain$$type_library$ 
02:00059E80 $wdef$vpiDomains_class$0$domain$$type_library$ 
02:00059E90 $errhandler$vpiDomains_class$0$domain$$type_library$ 
02:00059EA0 $eHandler$vpiDomains_class$0$domain$$type_library$ 
02:00059EB0 $accelerator$vpiDomains_class$0$domain$$type_library$ 
02:00059EC0 $bitmapId$vpiDomains_class$0$domain$$type_library$ 
02:00059ED0 $ddeserviceInfo$vpiDomains_class$0$domain$$type_library$ 
02:00059EE0 $ddedata$vpiDomains_class$0$domain$$type_library$ 
02:00059EF0 $ddeevent$vpiDomains_class$0$domain$$type_library$ 
02:00059F00 $alignment$vpiDomains_class$0$domain$$type_library$ 
--- From 'Obj\console_api.63955AF5.obj'
02:00059F10 $coord$console_native_class$0$domain$$type_library$ 
02:00059F20 $consoleScreenBufferInfo$console_native_class$0$domain$$type_library$ 
02:00059F30 $key_event_record$console_native_class$0$domain$$type_library$ 
02:00059F40 $mouse_event_record$console_native_class$0$domain$$type_library$ 
02:00059F50 $char_info$console_native_class$0$domain$$type_library$ 
02:00059F60 $small_rect$console_native_class$0$domain$$type_library$ 
02:00059F70 $handlerRoutine$console_native_class$0$domain$$type_library$ 
--- From 'Obj\exception.B3237F89.obj'
02:00059F80 $outputStream_binary$_global_class$0$domain$$type_library$ 
--- From 'Obj\inputstreamsupport.CF2B28B0.obj'
02:00059F90 $bufferSupport$_global_class$0$domain$$type_library$ 
02:00059FA0 $offsetPtr$bufferSupport_interface$0$domain$$type_library$ 
--- From 'Obj\stream.6FDF4122.obj'
02:00059FB0 $inputStream$_global_class$0$domain$$type_library$ 
02:00059FC0 $outputStream$_global_class$0$domain$$type_library$ 
--- From 'Obj\inputstreamsupport.CF2B28B0.obj'
02:00059FD0 $outputSerializer$outputStream_interface$0$domain$$type_library$ 
--- From 'Obj\stream.6FDF4122.obj'
02:00059FE0 $stdioState$_global_class$0$domain$$type_library$ 
--- From 'Obj\inputstreamsupport.CF2B28B0.obj'
02:00059FF0 $stream$_global_class$0$domain$$type_library$ 
--- From 'Obj\outputstreamsupport.DD5669F3.obj'
02:0005A000 $mode$stream_interface$0$domain$$type_library$ 
02:0005A010 $outputStream_string$_global_class$0$domain$$type_library$ 
--- From 'Obj\string.C639126F.obj'
02:0005A020 $contentsChangedListener$outputStream_string_interface$0$domain$$type_library$ 
--- From 'Obj\exe_api.BB59C7F0.obj'
02:0005A030 $runMode$exe_api_class$0$domain$$type_library$ 
02:0005A040 $coInit$exe_api_class$0$domain$$type_library$ 
--- From 'Obj\string8.ACF7B790.obj'
02:0005A050 $string$_builtIn_class$0$domain$$type_library$ 
--- From 'Obj\string.C639126F.obj'
02:0005A060 $pointer$_builtIn_class$0$domain$$type_library$ 
--- From 'Obj\filesystem_api.D2434073.obj'
02:0005A070 $fileAttributesInfo$fileSystem_native_class$0$domain$$type_library$ 
02:0005A080 $overlapped$fileSystem_native_class$0$domain$$type_library$ 
--- From 'Obj\string.C639126F.obj'
02:0005A090 $inputBuffer$_global_class$0$domain$$type_library$ 
--- From 'Obj\inputstreamsupport.CF2B28B0.obj'
02:0005A0A0 $inputSupport$_global_class$0$domain$$type_library$ 
--- From 'Obj\string.C639126F.obj'
02:0005A0B0 $outputBuffer$_global_class$0$domain$$type_library$ 
--- From 'Obj\inputstreamsupport.CF2B28B0.obj'
02:0005A0C0 $outputSupport$_global_class$0$domain$$type_library$ 
--- From 'Obj\filesystem_api.D2434073.obj'
02:0005A0D0 $ofStruct$lZ_fileSystem_native_class$0$domain$$type_library$ 
02:0005A0E0 $fileInfo$fileSystem_native_class$0$domain$$type_library$ 
02:0005A0F0 $win32_find_data$fileSystem_native_class$0$domain$$type_library$ 
02:0005A100 $file_info_by_handle_class$fileSystem_native_class$0$domain$$type_library$ 
02:0005A110 $fileIOCompletionRoutine$fileSystem_native_class$0$domain$$type_library$ 
02:0005A120 $fileAction$fileSystem_native_class$0$domain$$type_library$ 
02:0005A130 $file_notify_information$fileSystem_native_class$0$domain$$type_library$ 
02:0005A140 $openFileName$fileSystem_native_class$0$domain$$type_library$ 
02:0005A150 $oFNHookProc$fileSystem_native_class$0$domain$$type_library$ 
02:0005A160 $uSE_INFO_0$fileSystem_native_class$0$domain$$type_library$ 
02:0005A170 $fileAttributeAtom$fileSystem_api_class$0$domain$$type_library$ 
02:0005A180 $accessPermit$fileSystem_api_class$0$domain$$type_library$ 
02:0005A190 $memAppend_CallBack$fileSystem_api_implement$0$domain$$type_library$ 
02:0005A1A0 $bufferOperation$fileSystem_api_implement$0$domain$$type_library$ 
02:0005A1B0 $anonymous$c0$1$getshortpathname/1nf$fileSystem_api$fileSystem_api_implement$0$domain$$type_library$ 
02:0005A1C0 $anonymous$c0$1$getlongpathname/1nf$fileSystem_api$fileSystem_api_implement$0$domain$$type_library$ 
--- From 'Obj\gui_api.660F5D37.obj'
02:0005A1D0 $scrollInfo$gui_native_class$0$domain$$type_library$ 
02:0005A1E0 $size$gui_native_class$0$domain$$type_library$ 
02:0005A1F0 $textmetric$gui_native_class$0$domain$$type_library$ 
02:0005A200 $dlgItemTemplate$gui_api_class$0$domain$$type_library$ 
--- From 'Obj\memory.89ECA104.obj'
02:0005A210 $integer16$core_class$0$domain$$type_library$ 
02:0005A220 $unsigned16$core_class$0$domain$$type_library$ 
02:0005A230 $unsigned8$core_class$0$domain$$type_library$ 
--- From 'Obj\gui_api.660F5D37.obj'
02:0005A240 $paintStruct$gui_native_class$0$domain$$type_library$ 
02:0005A250 $accel$gui_native_class$0$domain$$type_library$ 
02:0005A260 $msg$gui_native_class$0$domain$$type_library$ 
02:0005A270 $menuItemInfo$gui_native_class$0$domain$$type_library$ 
02:0005A280 $input$gui_native_class$0$domain$$type_library$ 
--- From 'Obj\string.C639126F.obj'
02:0005A290 $positive$core_class$0$domain$$type_library$ 
--- From 'Obj\gui_api.660F5D37.obj'
02:0005A2A0 $iconInfo$gui_native_class$0$domain$$type_library$ 
02:0005A2B0 $mouseMovePoint$gui_native_class$0$domain$$type_library$ 
02:0005A2C0 $enumDesktopProc$gui_native_class$0$domain$$type_library$ 
02:0005A2D0 $enumWindowStationProc$gui_native_class$0$domain$$type_library$ 
02:0005A2E0 $copyDataStruct$gui_native_class$0$domain$$type_library$ 
02:0005A2F0 $trackMouseEvent$gui_native_class$0$domain$$type_library$ 
02:0005A300 $sendAsyncProc$gui_native_class$0$domain$$type_library$ 
02:0005A310 $wndProc$gui_native_class$0$domain$$type_library$ 
02:0005A320 $wndClassEx$gui_native_class$0$domain$$type_library$ 
02:0005A330 $createstruct$gui_native_class$0$domain$$type_library$ 
02:0005A340 $flashInfo$gui_native_class$0$domain$$type_library$ 
02:0005A350 $windowPos$gui_native_class$0$domain$$type_library$ 
02:0005A360 $windowPlacement$gui_native_class$0$domain$$type_library$ 
02:0005A370 $windowInfo$gui_native_class$0$domain$$type_library$ 
02:0005A380 $monitorInfo$gui_native_class$0$domain$$type_library$ 
02:0005A390 $monitorInfoEx$gui_native_class$0$domain$$type_library$ 
02:0005A3A0 $monitorEnumProc$gui_native_class$0$domain$$type_library$ 
02:0005A3B0 $dlgTemplate$gui_native_class$0$domain$$type_library$ 
02:0005A3C0 $dlgItemTemplate$gui_native_class$0$domain$$type_library$ 
02:0005A3D0 $dlgTemplateEx$gui_native_class$0$domain$$type_library$ 
02:0005A3E0 $timerProc$gui_native_class$0$domain$$type_library$ 
02:0005A3F0 $drawTextParams$gui_native_class$0$domain$$type_library$ 
02:0005A400 $grayStringProc$gui_native_class$0$domain$$type_library$ 
02:0005A410 $drawStateProc$gui_native_class$0$domain$$type_library$ 
02:0005A420 $propEnumProc$gui_native_class$0$domain$$type_library$ 
02:0005A430 $helpInfo$gui_native_class$0$domain$$type_library$ 
02:0005A440 $wndEnumProc$gui_native_class$0$domain$$type_library$ 
02:0005A450 $gaFlags$gui_native_class$0$domain$$type_library$ 
02:0005A460 $hookProc$gui_native_class$0$domain$$type_library$ 
02:0005A470 $kbdllhookstruct$gui_native_class$0$domain$$type_library$ 
02:0005A480 $buttonImageList$gui_native_class$0$domain$$type_library$ 
02:0005A490 $button_imageList_align$gui_native_class$0$domain$$type_library$ 
02:0005A4A0 $nmBcHotItem$gui_native_class$0$domain$$type_library$ 
02:0005A4B0 $button_splitInfo$gui_native_class$0$domain$$type_library$ 
02:0005A4C0 $nmBcDropdown$gui_native_class$0$domain$$type_library$ 
02:0005A4D0 $nmhdr$gui_native_class$0$domain$$type_library$ 
02:0005A4E0 $nmCustomDraw$gui_native_class$0$domain$$type_library$ 
02:0005A4F0 $scrollBarInfo$gui_native_class$0$domain$$type_library$ 
02:0005A500 $logbrush$gui_native_class$0$domain$$type_library$ 
02:0005A510 $tcItem$gui_native_class$0$domain$$type_library$ 
02:0005A520 $tagInitCommonControlsEx$gui_native_class$0$domain$$type_library$ 
02:0005A530 $logPalette$gui_native_class$0$domain$$type_library$ 
02:0005A540 $mouseInput$gui_native_class$0$domain$$type_library$ 
02:0005A550 $keybdInput$gui_native_class$0$domain$$type_library$ 
02:0005A560 $hardwareInput$gui_native_class$0$domain$$type_library$ 
02:0005A570 $inputUnion$gui_native_class$0$domain$$type_library$ 
02:0005A580 $toolinfo$gui_native_class$0$domain$$type_library$ 
02:0005A590 $nmttdispInfo$gui_native_class$0$domain$$type_library$ 
02:0005A5A0 $blendFunction$gui_native_class$0$domain$$type_library$ 
02:0005A5B0 $chooseFont$gui_native_class$0$domain$$type_library$ 
02:0005A5C0 $printdlg$gui_native_class$0$domain$$type_library$ 
02:0005A5D0 $printdlgEx$gui_native_class$0$domain$$type_library$ 
02:0005A5E0 $inputUnion_mi$gui_native_class$0$domain$$type_library$ 
02:0005A5F0 $inputUnion_ki$gui_native_class$0$domain$$type_library$ 
02:0005A600 $inputUnion_hi$gui_native_class$0$domain$$type_library$ 
02:0005A610 $scrollInfo$gui_api_class$0$domain$$type_library$ 
02:0005A620 $windowPlacement$gui_api_class$0$domain$$type_library$ 
02:0005A630 $dlgTemplate$gui_api_class$0$domain$$type_library$ 
02:0005A640 $varArray$gui_api_class$0$domain$$type_library$ 
02:0005A650 $monitorInfo$gui_api_class$0$domain$$type_library$ 
02:0005A660 $anonymous$c0$1$sendinput/1np$gui_api$gui_api_implement$0$domain$$type_library$ 
--- From 'Obj\locale_api.813BCFA0.obj'
02:0005A670 $stdBoolFunc$locale_native_class$1$domain$$type_library$ 
02:0005A680 $stdBoolFunc$locale_native_class$2$domain$$type_library$ 
02:0005A690 $stdBoolFunc$locale_native_class$4$domain$$type_library$ 
02:0005A6A0 $stdBoolFunc$locale_native_class$5$domain$$type_library$ 
02:0005A6B0 $numberfmt$locale_native_class$0$domain$$type_library$ 
--- From 'Obj\string8.ACF7B790.obj'
02:0005A6C0 $string8$_builtIn_class$0$domain$$type_library$ 
--- From 'Obj\memory.89ECA104.obj'
02:0005A6D0 $binary$_builtIn_class$0$domain$$type_library$ 
--- From 'Obj\memory_api.61C8F3DA.obj'
02:0005A6E0 $memory_basic_information$memory_native_class$0$domain$$type_library$ 
02:0005A6F0 $memoryStatusEx$memory_native_class$0$domain$$type_library$ 
--- From 'Obj\multithread_api.6656783C.obj'
02:0005A700 $selectorEntry$multiThread_native_class$0$domain$$type_library$ 
02:0005A710 $timerAPCProc$multiThread_native_class$0$domain$$type_library$ 
02:0005A720 $startupInfo$multiThread_native_class$0$domain$$type_library$ 
02:0005A730 $processInformation$multiThread_native_class$0$domain$$type_library$ 
02:0005A740 $threadRunnable$multiThread_native_class$0$domain$$type_library$ 
02:0005A750 $critical_section$multiThread_native_class$0$domain$$type_library$ 
02:0005A760 $m128A$multiThread_native_class$0$domain$$type_library$ 
02:0005A770 $cache_descriptor$multiThread_native_class$0$domain$$type_library$ 
02:0005A780 $system_logical_processor_information$multiThread_native_class$0$domain$$type_library$ 
02:0005A790 $isWOW64Process_func$multiThread_api_implement$0$domain$$type_library$ 
02:0005A7A0 $multiThread_api@classDB$multiThread_api_implement$0$domain$$type_library$ 
--- From 'Obj\registry_api.32A69E85.obj'
02:0005A7B0 $securityAttr$registry_native_class$0$domain$$type_library$ 
--- From 'Obj\runtime_api.77D75C02.obj'
02:0005A7C0 $runtime_api@classDB$runtime_api_implement$0$domain$$type_library$ 
--- From 'Obj\filesystem.AD950C87.obj'
02:0005A7D0 $iStream_native$_global_class$0$domain$$type_library$ 
02:0005A7E0 $iUnknown$_global_class$0$domain$$type_library$ 
--- From 'Obj\shell_api.FFCE11BE.obj'
02:0005A7F0 $shellExecuteInfo$shell_native_class$0$domain$$type_library$ 
02:0005A800 $appBarData$shell_native_class$0$domain$$type_library$ 
02:0005A810 $shFileOpStruct$shell_native_class$0$domain$$type_library$ 
02:0005A820 $sHNameMapping$shell_native_class$0$domain$$type_library$ 
02:0005A830 $shQueryRBinfo$shell_native_class$0$domain$$type_library$ 
02:0005A840 $notifyIcondata$shell_native_class$0$domain$$type_library$ 
02:0005A850 $sHFileInfo$shell_native_class$0$domain$$type_library$ 
02:0005A860 $browseinfo$shell_native_class$0$domain$$type_library$ 
02:0005A870 $browseCallbackProc$shell_native_class$0$domain$$type_library$ 
02:0005A880 $shard$shell_native_class$0$domain$$type_library$ 
--- From 'Obj\systeminformation_api.344506F5.obj'
02:0005A890 $system_Info$systemInformation_native_class$0$domain$$type_library$ 
02:0005A8A0 $nonclientMetrics$systemInformation_native_class$0$domain$$type_library$ 
02:0005A8B0 $nonclientMetricsXP$systemInformation_native_class$0$domain$$type_library$ 
02:0005A8C0 $osVersionInfo$systemInformation_native_class$0$domain$$type_library$ 
02:0005A8D0 $osVersionInfoEX$systemInformation_native_class$0$domain$$type_library$ 
02:0005A8E0 $systemInformation_api@classDB$systemInformation_api_implement$0$domain$$type_library$ 
--- From 'Obj\time_api.1A6CCE63.obj'
02:0005A8F0 $systemTime$time_native_class$0$domain$$type_library$ 
02:0005A900 $timeZoneAPI$time_native_class$0$domain$$type_library$ 
02:0005A910 $fileTime$time_native_class$0$domain$$type_library$ 
02:0005A920 $reg_tzi_format$time_native_class$0$domain$$type_library$ 
--- From 'Obj\windowsapi.93A73582.obj'
02:0005A930 $security_descriptor$windowsAPI_class$0$domain$$type_library$ 
02:0005A940 $acl$windowsAPI_class$0$domain$$type_library$ 
02:0005A950 $security_attributes$windowsAPI_class$0$domain$$type_library$ 
--- From 'Obj\string.C639126F.obj'
02:0005A960 $real$_builtIn_class$0$domain$$type_library$ 
--- From 'Obj\memory.89ECA104.obj'
02:0005A970 $real32$_builtIn_class$0$domain$$type_library$ 
--- From 'Obj\main.A22FE9BF.obj'
02:0005A980 $$byte$_builtIn_class$0$domain$$type_library$ 
02:0005A990 $symbol$_builtIn_class$0$domain$$type_library$ 
--- From 'Obj\string.C639126F.obj'
02:0005A9A0 $char$_builtIn_class$0$domain$$type_library$ 
--- From 'Obj\memory.89ECA104.obj'
02:0005A9B0 $binaryNonAtomic$_builtIn_class$0$domain$$type_library$ 
--- From 'Obj\filesystem.AD950C87.obj'
02:0005A9C0 $factdb$_builtIn_class$0$domain$$type_library$ 
02:0005A9D0 $...$_builtIn_class$0$domain$$type_library$ 
--- From 'Obj\memory.89ECA104.obj'
02:0005A9E0 $integer64$_builtIn_class$0$domain$$type_library$ 
02:0005A9F0 $unsigned64$_builtIn_class$0$domain$$type_library$ 
--- From 'Obj\main.A22FE9BF.obj'
02:0005AA00 $any$_builtIn_class$0$domain$$type_library$ 
--- From 'Obj\memory.89ECA104.obj'
02:0005AA10 $integerNative$_builtIn_class$0$domain$$type_library$ 
02:0005AA20 $unsignedNative$_builtIn_class$0$domain$$type_library$ 
--- From 'Obj\main.A22FE9BF.obj'
02:0005AA30 $_someType$_builtIn_class$0$domain$$type_library$ 
02:0005AA40 $compareResult$_builtIn_class$0$domain$$type_library$ 
02:0005AA50 $relatives$family_implement$0$domain$$type_library$ 
02:0005AA60 $dogs$dog1_implement$0$domain$$type_library$ 
--- From 'Obj\exe.CB067240.obj'
02:0005AA70 $mainExe@classDB$mainExe_implement$0$domain$$type_library$ 
--- From 'Obj\binary.A4D00680.obj'
02:0005AA80 $outputStream_binary@objectDB$outputStream_binary_implement$0$domain$$type_library$ 
02:0005AA90 $inputStream_binary@objectDB$inputStream_binary_implement$0$domain$$type_library$ 
--- From 'Obj\redblackset.81A33291.obj'
02:0005AAA0 $anonymous$c0$1$empty/0$redBlackSet$redBlackSet_implement$0$domain$$type_library$ 
--- From 'Obj\redblacktree.34565F50.obj'
02:0005AAB0 $uniqueKey$redBlackTree_class$0$domain$$type_library$ 
02:0005AAC0 $anonymous$c0$1$empty/0$redBlackTree$redBlackTree_implement$0$domain$$type_library$ 
02:0005AAD0 $anonymous$c0$1$emptyUnique/0$redBlackTree$redBlackTree_implement$0$domain$$type_library$ 
--- From 'Obj\collectionsupport.A87B70B8.obj'
02:0005AAE0 $collectionSupport@objectDB$collectionSupport\collectionSupport{@Type}_implement$0$domain$$type_library$ 
02:0005AAF0 $collectionsupport$typeLibDB$collectionSupport\collectionSupport{@Type}_implement$0$domain$$type_library$ 
--- From 'Obj\arraym_inline.0A13D119.obj'
02:0005AB00 $ptr$arrayM_inlineValue{@ItemType}_implement$0$domain$$type_library$ 
02:0005AB10 $arrayM_inlineValue@objectDB$arrayM_inlineValue{@ItemType}_implement$0$domain$$type_library$ 
02:0005AB20 $arraym_inlinevalue$typeLibDB$arrayM_inlineValue{@ItemType}_implement$0$domain$$type_library$ 
02:0005AB30 $arrayM_inline@objectDB$arrayM_inline{@ItemType}_implement$0$domain$$type_library$ 
02:0005AB40 $arraym_inline$typeLibDB$arrayM_inline{@ItemType}_implement$0$domain$$type_library$ 
--- From 'Obj\mapm_redblack.88A5A755.obj'
02:0005AB50 $mapM_redBlack@objectDB$mapM_redBlack{@Key,@Data}_implement$0$domain$$type_library$ 
02:0005AB60 $mapm_redblack$typeLibDB$mapM_redBlack{@Key,@Data}_implement$0$domain$$type_library$ 
--- From 'Obj\setm_redblack.5372EEBC.obj'
02:0005AB70 $setM_redBlack@objectDB$setM_redBlack{@Type}_implement$0$domain$$type_library$ 
02:0005AB80 $setm_redblack$typeLibDB$setM_redBlack{@Type}_implement$0$domain$$type_library$ 
--- From 'Obj\collectionmsupport.64B31F2A.obj'
02:0005AB90 $collectionMsupport@objectDB$collectionSupportM\collectionMsupport{@Type}_implement$0$domain$$type_library$ 
02:0005ABA0 $collectionmsupport$typeLibDB$collectionSupportM\collectionMsupport{@Type}_implement$0$domain$$type_library$ 
--- From 'Obj\mapmsupport.A422FE9A.obj'
02:0005ABB0 $mapMSupport@objectDB$collectionSupportM\mapMSupport{@Key,@Data}_implement$0$domain$$type_library$ 
02:0005ABC0 $mapmsupport$typeLibDB$collectionSupportM\mapMSupport{@Key,@Data}_implement$0$domain$$type_library$ 
--- From 'Obj\console.93C0DBD8.obj'
02:0005ABD0 $outputStream_console@objectDB$outputStream_console_implement$0$domain$$type_library$ 
02:0005ABE0 $inputStream_console@objectDB$inputStream_console_implement$0$domain$$type_library$ 
02:0005ABF0 $event$console_class$0$domain$$type_library$ 
02:0005AC00 $console@classDB$console_implement$0$domain$$type_library$ 
02:0005AC10 $anonymous$c0$1$run/3np$console$console_implement$0$domain$$type_library$ 
--- From 'Obj\core.9A8E3854.obj'
02:0005AC20 $resourceIdentifiers$_global_class$0$domain$$type_library$ 
02:0005AC30 $unit$core_class$0$domain$$type_library$ 
02:0005AC40 $unsigned64_struct$core_class$0$domain$$type_library$ 
--- From 'Obj\memory.89ECA104.obj'
02:0005AC50 $integer8$core_class$0$domain$$type_library$ 
--- From 'Obj\core.9A8E3854.obj'
02:0005AC60 $integer64_struct$core_class$0$domain$$type_library$ 
--- From 'Obj\namedvalue.9E6FA98D.obj'
02:0005AC70 $namedValue$core_class$0$domain$$type_library$ 
--- From 'Obj\core.9A8E3854.obj'
02:0005AC80 $classInfo$core_class$0$domain$$type_library$ 
--- From 'Obj\exception.B3237F89.obj'
02:0005AC90 $exception$core_class$0$domain$$type_library$ 
--- From 'Obj\core.9A8E3854.obj'
02:0005ACA0 $nativeGuid$core_class$0$domain$$type_library$ 
02:0005ACB0 $byteCountOptional$core_class$0$domain$$type_library$ 
--- From 'Obj\string.C639126F.obj'
02:0005ACC0 $byteCount$core_class$0$domain$$type_library$ 
--- From 'Obj\core.9A8E3854.obj'
02:0005ACD0 $charCountOptional$core_class$0$domain$$type_library$ 
--- From 'Obj\memory.89ECA104.obj'
02:0005ACE0 $charCount$core_class$0$domain$$type_library$ 
--- From 'Obj\core.9A8E3854.obj'
02:0005ACF0 $positiveOptional$core_class$0$domain$$type_library$ 
02:0005AD00 $function$core_class$1$domain$$type_library$ 
02:0005AD10 $function$core_class$2$domain$$type_library$ 
--- From 'Obj\list.50589F40.obj'
02:0005AD20 $function$core_class$3$domain$$type_library$ 
--- From 'Obj\core.9A8E3854.obj'
02:0005AD30 $function$core_class$4$domain$$type_library$ 
02:0005AD40 $function$core_class$5$domain$$type_library$ 
02:0005AD50 $function$core_class$6$domain$$type_library$ 
02:0005AD60 $function$core_class$7$domain$$type_library$ 
02:0005AD70 $function$core_class$8$domain$$type_library$ 
02:0005AD80 $function$core_class$9$domain$$type_library$ 
02:0005AD90 $function$core_class$10$domain$$type_library$ 
02:0005ADA0 $function$core_class$11$domain$$type_library$ 
02:0005ADB0 $function_dt$core_class$1$domain$$type_library$ 
02:0005ADC0 $function_dt$core_class$2$domain$$type_library$ 
02:0005ADD0 $function_dt$core_class$3$domain$$type_library$ 
02:0005ADE0 $function_dt$core_class$4$domain$$type_library$ 
02:0005ADF0 $function_dt$core_class$5$domain$$type_library$ 
02:0005AE00 $function_dt$core_class$6$domain$$type_library$ 
02:0005AE10 $function_dt$core_class$7$domain$$type_library$ 
02:0005AE20 $function_dt$core_class$8$domain$$type_library$ 
02:0005AE30 $function_dt$core_class$9$domain$$type_library$ 
02:0005AE40 $function_dt$core_class$10$domain$$type_library$ 
02:0005AE50 $function_dt$core_class$11$domain$$type_library$ 
02:0005AE60 $function_nd$core_class$1$domain$$type_library$ 
02:0005AE70 $function_nd$core_class$2$domain$$type_library$ 
02:0005AE80 $function_nd$core_class$3$domain$$type_library$ 
02:0005AE90 $function_nd$core_class$4$domain$$type_library$ 
02:0005AEA0 $function_nd$core_class$5$domain$$type_library$ 
02:0005AEB0 $function_nd$core_class$6$domain$$type_library$ 
02:0005AEC0 $function_nd$core_class$7$domain$$type_library$ 
02:0005AED0 $function_nd$core_class$8$domain$$type_library$ 
02:0005AEE0 $function_nd$core_class$9$domain$$type_library$ 
02:0005AEF0 $function_nd$core_class$10$domain$$type_library$ 
02:0005AF00 $function_nd$core_class$11$domain$$type_library$ 
02:0005AF10 $predicate$core_class$0$domain$$type_library$ 
--- From 'Obj\outputstreamsupport.DD5669F3.obj'
02:0005AF20 $predicate$core_class$1$domain$$type_library$ 
--- From 'Obj\string.C639126F.obj'
02:0005AF30 $predicate$core_class$2$domain$$type_library$ 
02:0005AF40 $predicate$core_class$3$domain$$type_library$ 
02:0005AF50 $predicate$core_class$4$domain$$type_library$ 
02:0005AF60 $predicate$core_class$5$domain$$type_library$ 
--- From 'Obj\core.9A8E3854.obj'
02:0005AF70 $predicate$core_class$6$domain$$type_library$ 
02:0005AF80 $predicate$core_class$7$domain$$type_library$ 
02:0005AF90 $predicate$core_class$8$domain$$type_library$ 
02:0005AFA0 $predicate$core_class$9$domain$$type_library$ 
02:0005AFB0 $predicate$core_class$10$domain$$type_library$ 
02:0005AFC0 $predicate_dt$core_class$0$domain$$type_library$ 
--- From 'Obj\list.50589F40.obj'
02:0005AFD0 $predicate_dt$core_class$1$domain$$type_library$ 
02:0005AFE0 $predicate_dt$core_class$2$domain$$type_library$ 
--- From 'Obj\core.9A8E3854.obj'
02:0005AFF0 $predicate_dt$core_class$3$domain$$type_library$ 
02:0005B000 $predicate_dt$core_class$4$domain$$type_library$ 
02:0005B010 $predicate_dt$core_class$5$domain$$type_library$ 
02:0005B020 $predicate_dt$core_class$6$domain$$type_library$ 
02:0005B030 $predicate_dt$core_class$7$domain$$type_library$ 
02:0005B040 $predicate_dt$core_class$8$domain$$type_library$ 
02:0005B050 $predicate_dt$core_class$9$domain$$type_library$ 
02:0005B060 $predicate_dt$core_class$10$domain$$type_library$ 
02:0005B070 $predicate_nd$core_class$0$domain$$type_library$ 
02:0005B080 $predicate_nd$core_class$1$domain$$type_library$ 
02:0005B090 $predicate_nd$core_class$2$domain$$type_library$ 
02:0005B0A0 $predicate_nd$core_class$3$domain$$type_library$ 
02:0005B0B0 $predicate_nd$core_class$4$domain$$type_library$ 
02:0005B0C0 $predicate_nd$core_class$5$domain$$type_library$ 
02:0005B0D0 $predicate_nd$core_class$6$domain$$type_library$ 
02:0005B0E0 $predicate_nd$core_class$7$domain$$type_library$ 
02:0005B0F0 $predicate_nd$core_class$8$domain$$type_library$ 
02:0005B100 $predicate_nd$core_class$9$domain$$type_library$ 
02:0005B110 $predicate_nd$core_class$10$domain$$type_library$ 
02:0005B120 $comparator$core_class$1$domain$$type_library$ 
02:0005B130 $comparator$core_class$2$domain$$type_library$ 
02:0005B140 $sortOrder$core_class$0$domain$$type_library$ 
--- From 'Obj\namedvalue.9E6FA98D.obj'
02:0005B150 $value$core_class$0$domain$$type_library$ 
--- From 'Obj\exception.B3237F89.obj'
02:0005B160 $sourceCursor$core_class$0$domain$$type_library$ 
--- From 'Obj\exceptiondump.364682AD.obj'
02:0005B170 $programPoint$core_class$0$domain$$type_library$ 
--- From 'Obj\core.9A8E3854.obj'
02:0005B180 $allowBoolean$core_class$0$domain$$type_library$ 
02:0005B190 $defaultActionBoolean$core_class$0$domain$$type_library$ 
--- From 'Obj\event.5052287E.obj'
02:0005B1A0 $event7@objectDB$event7{@Source,@Type1,@Type2,@Type3,@Type4,@Type5,@Type6,@Type7}_implement$0$domain$$type_library$ 
02:0005B1B0 $event7$typeLibDB$event7{@Source,@Type1,@Type2,@Type3,@Type4,@Type5,@Type6,@Type7}_implement$0$domain$$type_library$ 
02:0005B1C0 $anonymous$o0$1$addlistener/2np$event7{@Source,@Type1,@Type2,@Type3,@Type4,@Type5,@Type6,@Type7}$event7{@Source,@Type1,@Type2,@Type3,@Type4,@Type5,@Type6,@Type7}_implement$0$domain$$type_library$ 
02:0005B1D0 $anonymous$o1$1$addlistener/2np$event7{@Source,@Type1,@Type2,@Type3,@Type4,@Type5,@Type6,@Type7}$event7{@Source,@Type1,@Type2,@Type3,@Type4,@Type5,@Type6,@Type7}_implement$0$domain$$type_library$ 
02:0005B1E0 $anonymous$o2$1$addlistener/2np$event7{@Source,@Type1,@Type2,@Type3,@Type4,@Type5,@Type6,@Type7}$event7{@Source,@Type1,@Type2,@Type3,@Type4,@Type5,@Type6,@Type7}_implement$0$domain$$type_library$ 
02:0005B1F0 $anonymous$o3$1$addlistener/2np$event7{@Source,@Type1,@Type2,@Type3,@Type4,@Type5,@Type6,@Type7}$event7{@Source,@Type1,@Type2,@Type3,@Type4,@Type5,@Type6,@Type7}_implement$0$domain$$type_library$ 
02:0005B200 $anonymous$o4$1$addlistener/2np$event7{@Source,@Type1,@Type2,@Type3,@Type4,@Type5,@Type6,@Type7}$event7{@Source,@Type1,@Type2,@Type3,@Type4,@Type5,@Type6,@Type7}_implement$0$domain$$type_library$ 
02:0005B210 $anonymous$o5$1$addlistener/2np$event7{@Source,@Type1,@Type2,@Type3,@Type4,@Type5,@Type6,@Type7}$event7{@Source,@Type1,@Type2,@Type3,@Type4,@Type5,@Type6,@Type7}_implement$0$domain$$type_library$ 
02:0005B220 $anonymous$o6$1$addlistener/2np$event7{@Source,@Type1,@Type2,@Type3,@Type4,@Type5,@Type6,@Type7}$event7{@Source,@Type1,@Type2,@Type3,@Type4,@Type5,@Type6,@Type7}_implement$0$domain$$type_library$ 
02:0005B230 $anonymous$o7$1$addlistener/2np$event7{@Source,@Type1,@Type2,@Type3,@Type4,@Type5,@Type6,@Type7}$event7{@Source,@Type1,@Type2,@Type3,@Type4,@Type5,@Type6,@Type7}_implement$0$domain$$type_library$ 
02:0005B240 $event6@objectDB$event6{@Source,@Type1,@Type2,@Type3,@Type4,@Type5,@Type6}_implement$0$domain$$type_library$ 
02:0005B250 $event6$typeLibDB$event6{@Source,@Type1,@Type2,@Type3,@Type4,@Type5,@Type6}_implement$0$domain$$type_library$ 
02:0005B260 $anonymous$o0$1$addlistener/2np$event6{@Source,@Type1,@Type2,@Type3,@Type4,@Type5,@Type6}$event6{@Source,@Type1,@Type2,@Type3,@Type4,@Type5,@Type6}_implement$0$domain$$type_library$ 
02:0005B270 $anonymous$o1$1$addlistener/2np$event6{@Source,@Type1,@Type2,@Type3,@Type4,@Type5,@Type6}$event6{@Source,@Type1,@Type2,@Type3,@Type4,@Type5,@Type6}_implement$0$domain$$type_library$ 
02:0005B280 $anonymous$o2$1$addlistener/2np$event6{@Source,@Type1,@Type2,@Type3,@Type4,@Type5,@Type6}$event6{@Source,@Type1,@Type2,@Type3,@Type4,@Type5,@Type6}_implement$0$domain$$type_library$ 
02:0005B290 $anonymous$o3$1$addlistener/2np$event6{@Source,@Type1,@Type2,@Type3,@Type4,@Type5,@Type6}$event6{@Source,@Type1,@Type2,@Type3,@Type4,@Type5,@Type6}_implement$0$domain$$type_library$ 
02:0005B2A0 $anonymous$o4$1$addlistener/2np$event6{@Source,@Type1,@Type2,@Type3,@Type4,@Type5,@Type6}$event6{@Source,@Type1,@Type2,@Type3,@Type4,@Type5,@Type6}_implement$0$domain$$type_library$ 
02:0005B2B0 $anonymous$o5$1$addlistener/2np$event6{@Source,@Type1,@Type2,@Type3,@Type4,@Type5,@Type6}$event6{@Source,@Type1,@Type2,@Type3,@Type4,@Type5,@Type6}_implement$0$domain$$type_library$ 
02:0005B2C0 $anonymous$o6$1$addlistener/2np$event6{@Source,@Type1,@Type2,@Type3,@Type4,@Type5,@Type6}$event6{@Source,@Type1,@Type2,@Type3,@Type4,@Type5,@Type6}_implement$0$domain$$type_library$ 
02:0005B2D0 $event5@objectDB$event5{@Source,@Type1,@Type2,@Type3,@Type4,@Type5}_implement$0$domain$$type_library$ 
02:0005B2E0 $event5$typeLibDB$event5{@Source,@Type1,@Type2,@Type3,@Type4,@Type5}_implement$0$domain$$type_library$ 
02:0005B2F0 $anonymous$o0$1$addlistener/2np$event5{@Source,@Type1,@Type2,@Type3,@Type4,@Type5}$event5{@Source,@Type1,@Type2,@Type3,@Type4,@Type5}_implement$0$domain$$type_library$ 
02:0005B300 $anonymous$o1$1$addlistener/2np$event5{@Source,@Type1,@Type2,@Type3,@Type4,@Type5}$event5{@Source,@Type1,@Type2,@Type3,@Type4,@Type5}_implement$0$domain$$type_library$ 
02:0005B310 $anonymous$o2$1$addlistener/2np$event5{@Source,@Type1,@Type2,@Type3,@Type4,@Type5}$event5{@Source,@Type1,@Type2,@Type3,@Type4,@Type5}_implement$0$domain$$type_library$ 
02:0005B320 $anonymous$o3$1$addlistener/2np$event5{@Source,@Type1,@Type2,@Type3,@Type4,@Type5}$event5{@Source,@Type1,@Type2,@Type3,@Type4,@Type5}_implement$0$domain$$type_library$ 
02:0005B330 $anonymous$o4$1$addlistener/2np$event5{@Source,@Type1,@Type2,@Type3,@Type4,@Type5}$event5{@Source,@Type1,@Type2,@Type3,@Type4,@Type5}_implement$0$domain$$type_library$ 
02:0005B340 $anonymous$o5$1$addlistener/2np$event5{@Source,@Type1,@Type2,@Type3,@Type4,@Type5}$event5{@Source,@Type1,@Type2,@Type3,@Type4,@Type5}_implement$0$domain$$type_library$ 
02:0005B350 $event4@objectDB$event4{@Source,@Type1,@Type2,@Type3,@Type4}_implement$0$domain$$type_library$ 
02:0005B360 $event4$typeLibDB$event4{@Source,@Type1,@Type2,@Type3,@Type4}_implement$0$domain$$type_library$ 
02:0005B370 $anonymous$o0$1$addlistener/2np$event4{@Source,@Type1,@Type2,@Type3,@Type4}$event4{@Source,@Type1,@Type2,@Type3,@Type4}_implement$0$domain$$type_library$ 
02:0005B380 $anonymous$o1$1$addlistener/2np$event4{@Source,@Type1,@Type2,@Type3,@Type4}$event4{@Source,@Type1,@Type2,@Type3,@Type4}_implement$0$domain$$type_library$ 
02:0005B390 $anonymous$o2$1$addlistener/2np$event4{@Source,@Type1,@Type2,@Type3,@Type4}$event4{@Source,@Type1,@Type2,@Type3,@Type4}_implement$0$domain$$type_library$ 
02:0005B3A0 $anonymous$o3$1$addlistener/2np$event4{@Source,@Type1,@Type2,@Type3,@Type4}$event4{@Source,@Type1,@Type2,@Type3,@Type4}_implement$0$domain$$type_library$ 
02:0005B3B0 $anonymous$o4$1$addlistener/2np$event4{@Source,@Type1,@Type2,@Type3,@Type4}$event4{@Source,@Type1,@Type2,@Type3,@Type4}_implement$0$domain$$type_library$ 
02:0005B3C0 $anonymous$o5$1$addlistener/2np$event4{@Source,@Type1,@Type2,@Type3,@Type4}$event4{@Source,@Type1,@Type2,@Type3,@Type4}_implement$0$domain$$type_library$ 
02:0005B3D0 $event3@objectDB$event3{@Source,@Type1,@Type2,@Type3}_implement$0$domain$$type_library$ 
02:0005B3E0 $event3$typeLibDB$event3{@Source,@Type1,@Type2,@Type3}_implement$0$domain$$type_library$ 
02:0005B3F0 $anonymous$o0$1$addlistener/2np$event3{@Source,@Type1,@Type2,@Type3}$event3{@Source,@Type1,@Type2,@Type3}_implement$0$domain$$type_library$ 
02:0005B400 $anonymous$o1$1$addlistener/2np$event3{@Source,@Type1,@Type2,@Type3}$event3{@Source,@Type1,@Type2,@Type3}_implement$0$domain$$type_library$ 
02:0005B410 $anonymous$o2$1$addlistener/2np$event3{@Source,@Type1,@Type2,@Type3}$event3{@Source,@Type1,@Type2,@Type3}_implement$0$domain$$type_library$ 
02:0005B420 $anonymous$o3$1$addlistener/2np$event3{@Source,@Type1,@Type2,@Type3}$event3{@Source,@Type1,@Type2,@Type3}_implement$0$domain$$type_library$ 
02:0005B430 $anonymous$o4$1$addlistener/2np$event3{@Source,@Type1,@Type2,@Type3}$event3{@Source,@Type1,@Type2,@Type3}_implement$0$domain$$type_library$ 
02:0005B440 $anonymous$o5$1$addlistener/2np$event3{@Source,@Type1,@Type2,@Type3}$event3{@Source,@Type1,@Type2,@Type3}_implement$0$domain$$type_library$ 
02:0005B450 $event2@objectDB$event2{@Source,@Type1,@Type2}_implement$0$domain$$type_library$ 
02:0005B460 $event2$typeLibDB$event2{@Source,@Type1,@Type2}_implement$0$domain$$type_library$ 
02:0005B470 $anonymous$o0$1$addlistener/2np$event2{@Source,@Type1,@Type2}$event2{@Source,@Type1,@Type2}_implement$0$domain$$type_library$ 
02:0005B480 $anonymous$o1$1$addlistener/2np$event2{@Source,@Type1,@Type2}$event2{@Source,@Type1,@Type2}_implement$0$domain$$type_library$ 
02:0005B490 $anonymous$o2$1$addlistener/2np$event2{@Source,@Type1,@Type2}$event2{@Source,@Type1,@Type2}_implement$0$domain$$type_library$ 
02:0005B4A0 $anonymous$o3$1$addlistener/2np$event2{@Source,@Type1,@Type2}$event2{@Source,@Type1,@Type2}_implement$0$domain$$type_library$ 
02:0005B4B0 $anonymous$o4$1$addlistener/2np$event2{@Source,@Type1,@Type2}$event2{@Source,@Type1,@Type2}_implement$0$domain$$type_library$ 
02:0005B4C0 $anonymous$o5$1$addlistener/2np$event2{@Source,@Type1,@Type2}$event2{@Source,@Type1,@Type2}_implement$0$domain$$type_library$ 
02:0005B4D0 $event1@objectDB$event1{@Source,@Type1}_implement$0$domain$$type_library$ 
02:0005B4E0 $event1$typeLibDB$event1{@Source,@Type1}_implement$0$domain$$type_library$ 
02:0005B4F0 $anonymous$o0$1$addlistener/2np$event1{@Source,@Type1}$event1{@Source,@Type1}_implement$0$domain$$type_library$ 
02:0005B500 $anonymous$o1$1$addlistener/2np$event1{@Source,@Type1}$event1{@Source,@Type1}_implement$0$domain$$type_library$ 
02:0005B510 $anonymous$o2$1$addlistener/2np$event1{@Source,@Type1}$event1{@Source,@Type1}_implement$0$domain$$type_library$ 
02:0005B520 $anonymous$o3$1$addlistener/2np$event1{@Source,@Type1}$event1{@Source,@Type1}_implement$0$domain$$type_library$ 
02:0005B530 $anonymous$o4$1$addlistener/2np$event1{@Source,@Type1}$event1{@Source,@Type1}_implement$0$domain$$type_library$ 
02:0005B540 $anonymous$o5$1$addlistener/2np$event1{@Source,@Type1}$event1{@Source,@Type1}_implement$0$domain$$type_library$ 
02:0005B550 $event0@objectDB$event0{@Source}_implement$0$domain$$type_library$ 
02:0005B560 $event0$typeLibDB$event0{@Source}_implement$0$domain$$type_library$ 
02:0005B570 $anonymous$o0$1$addlistener/2np$event0{@Source}$event0{@Source}_implement$0$domain$$type_library$ 
02:0005B580 $anonymous$o1$1$addlistener/2np$event0{@Source}$event0{@Source}_implement$0$domain$$type_library$ 
02:0005B590 $anonymous$o2$1$addlistener/2np$event0{@Source}$event0{@Source}_implement$0$domain$$type_library$ 
02:0005B5A0 $anonymous$o3$1$addlistener/2np$event0{@Source}$event0{@Source}_implement$0$domain$$type_library$ 
02:0005B5B0 $anonymous$o4$1$addlistener/2np$event0{@Source}$event0{@Source}_implement$0$domain$$type_library$ 
02:0005B5C0 $anonymous$o5$1$addlistener/2np$event0{@Source}$event0{@Source}_implement$0$domain$$type_library$ 
--- From 'Obj\exceptiondump.364682AD.obj'
02:0005B5D0 $traceInfo$exception_class$0$domain$$type_library$ 
--- From 'Obj\namedvalue.9E6FA98D.obj'
02:0005B5E0 $*$_builtIn_class$1$domain$$type_library$1$86504973${core::namedValue}$ 
--- From 'Obj\reflection.9A16C2FF.obj'
02:0005B5F0 $pfc\reflection\functorDescriptor$_global_class$0$domain$$type_library$ 
02:0005B600 $pfc\reflection\scopeDescriptor$_global_class$0$domain$$type_library$ 
02:0005B610 $scopeKind$pfc\reflection\scopeDescriptor_interface$0$domain$$type_library$ 
02:0005B620 $pfc\reflection\typeLibrary$_global_class$0$domain$$type_library$ 
02:0005B630 $wrapPresenter$pfc\reflection\typeLibrary_interface$0$domain$$type_library$ 
02:0005B640 $pfc\reflection\typeLibrary_functor$_global_class$0$domain$$type_library$ 
--- From 'Obj\exceptiondump.364682AD.obj'
02:0005B650 $kind$exception_class$0$domain$$type_library$ 
--- From 'Obj\exception.B3237F89.obj'
02:0005B660 $programPointDescriptor$exception_class$0$domain$$type_library$ 
--- From 'Obj\exceptiondump.364682AD.obj'
02:0005B670 $descriptor$exception_class$0$domain$$type_library$ 
02:0005B680 $lineInfo$exception_class$0$domain$$type_library$ 
--- From 'Obj\exception.B3237F89.obj'
02:0005B690 $errorDescriptorInformation@objectDB$errorDescriptorInformation_implement$0$domain$$type_library$ 
--- From 'Obj\exceptiondump.364682AD.obj'
02:0005B6A0 $*$_builtIn_class$1$domain$$type_library$1$D961E81E${exception::descriptor}$ 
02:0005B6B0 $*$_builtIn_class$1$domain$$type_library$1$A4995D7B${exception::lineInfo}$ 
--- From 'Obj\filesystem.AD950C87.obj'
02:0005B6C0 $codePage$fileVersion_implement$0$domain$$type_library$ 
02:0005B6D0 $languagex$fileVersion_implement$0$domain$$type_library$ 
02:0005B6E0 $outputStream_file@objectDB$outputStream_file_implement$0$domain$$type_library$ 
02:0005B6F0 $messageFile@objectDB$messageFile_implement$0$domain$$type_library$ 
02:0005B700 $anonymous$o0$1$write/0ep$messageFile$messageFile_implement$0$domain$$type_library$ 
02:0005B710 $anonymous$o0$1$writef/1ep$messageFile$messageFile_implement$0$domain$$type_library$ 
02:0005B720 $anonymous$o0$1$writequoted/0ep$messageFile$messageFile_implement$0$domain$$type_library$ 
02:0005B730 $anonymous$o0$1$writebytes/2np$messageFile$messageFile_implement$0$domain$$type_library$ 
02:0005B740 $anonymous$o0$1$save/1np$messageFile$messageFile_implement$0$domain$$type_library$ 
02:0005B750 $inputStream_file@objectDB$inputStream_file_implement$0$domain$$type_library$ 
02:0005B760 $versionInformation$fileVersion_class$0$domain$$type_library$ 
02:0005B770 $fileVersionInformation$fileVersion_class$0$domain$$type_library$ 
02:0005B780 $twoInt$fileVersion_implement$0$domain$$type_library$ 
02:0005B790 $pTwoInt$fileVersion_implement$0$domain$$type_library$ 
02:0005B7A0 $vs_fixedfileinfo$fileVersion_implement$0$domain$$type_library$ 
02:0005B7B0 $pvs_fixedfileinfo$fileVersion_implement$0$domain$$type_library$ 
02:0005B7C0 $overwrite$file_class$0$domain$$type_library$ 
02:0005B7D0 $volumeType$directory_class$0$domain$$type_library$ 
--- From 'Obj\list.50589F40.obj'
02:0005B7E0 $anonymous$c0$1$comparelexically/1nf$list$list_implement$0$domain$$type_library$ 
02:0005B7F0 $anonymous$c0$1$comp2eq/1nf$list$list_implement$0$domain$$type_library$ 
02:0005B800 $anonymous$c0$1$sortby/3nf$list$list_implement$0$domain$$type_library$ 
02:0005B810 $anonymous$c0$1$sort/1$list$list_implement$0$domain$$type_library$ 
02:0005B820 $anonymous$c0$1$sort/2nf$list$list_implement$0$domain$$type_library$ 
02:0005B830 $anonymous$c0$1$removeConsecutiveDuplicates/1$list$list_implement$0$domain$$type_library$ 
02:0005B840 $anonymous$c0$1$splitafter/2nf$list$list_implement$0$domain$$type_library$ 
02:0005B850 $anonymous$c0$1$maximum/1$list$list_implement$0$domain$$type_library$ 
02:0005B860 $anonymous$c0$1$minimumby/2nf$list$list_implement$0$domain$$type_library$ 
02:0005B870 $anonymous$c0$1$minimum/1$list$list_implement$0$domain$$type_library$ 
02:0005B880 $anonymous$c0$1$groupbyeq/2nf$list$list_implement$0$domain$$type_library$ 
02:0005B890 $anonymous$c0$1$foldr/3nf$list$list_implement$0$domain$$type_library$ 
--- From 'Obj\math.FC1B1006.obj'
02:0005B8A0 $inCircle$math_class$0$domain$$type_library$ 
02:0005B8B0 $aPeriod$math_class$0$domain$$type_library$ 
02:0005B8C0 $uReal$math_class$0$domain$$type_library$ 
--- From 'Obj\memory.89ECA104.obj'
02:0005B8D0 $pRef$weakPointer_implement$0$domain$$type_library$ 
02:0005B8E0 $pPointer$memory_class$0$domain$$type_library$ 
02:0005B8F0 $pInteger8$memory_class$0$domain$$type_library$ 
02:0005B900 $pInteger16$memory_class$0$domain$$type_library$ 
02:0005B910 $pInteger$memory_class$0$domain$$type_library$ 
02:0005B920 $pInteger64$memory_class$0$domain$$type_library$ 
02:0005B930 $weakReference@objectDB$weakReference{@Type}_implement$0$domain$$type_library$ 
02:0005B940 $weakreference$typeLibDB$weakReference{@Type}_implement$0$domain$$type_library$ 
02:0005B950 $pPredRef$weakPointer_implement$0$domain$$type_library$ 
02:0005B960 $weakPointer@objectDB$weakPointer_implement$0$domain$$type_library$ 
02:0005B970 $contextMap$memory_class$0$domain$$type_library$ 
02:0005B980 $memoryKind$memory_class$0$domain$$type_library$ 
02:0005B990 $pBinary$memory_class$0$domain$$type_library$ 
02:0005B9A0 $pBinaryNonAtomic$memory_class$0$domain$$type_library$ 
02:0005B9B0 $pByteCount$memory_class$0$domain$$type_library$ 
02:0005B9C0 $pChar$memory_class$0$domain$$type_library$ 
02:0005B9D0 $pChar8$memory_class$0$domain$$type_library$ 
02:0005B9E0 $pCharCount$memory_class$0$domain$$type_library$ 
02:0005B9F0 $pHandle$memory_class$0$domain$$type_library$ 
02:0005BA00 $pIntegerNative$memory_class$0$domain$$type_library$ 
02:0005BA10 $pObject$memory_class$0$domain$$type_library$ 
02:0005BA20 $pReal$memory_class$0$domain$$type_library$ 
02:0005BA30 $pReal32$memory_class$0$domain$$type_library$ 
02:0005BA40 $pString$memory_class$0$domain$$type_library$ 
02:0005BA50 $pString8$memory_class$0$domain$$type_library$ 
02:0005BA60 $pUnsigned$memory_class$0$domain$$type_library$ 
02:0005BA70 $pUnsigned16$memory_class$0$domain$$type_library$ 
02:0005BA80 $pUnsigned64$memory_class$0$domain$$type_library$ 
02:0005BA90 $pUnsigned8$memory_class$0$domain$$type_library$ 
02:0005BAA0 $pUnsignedNative$memory_class$0$domain$$type_library$ 
02:0005BAB0 $unsigned4$bit_class$0$domain$$type_library$ 
02:0005BAC0 $one32$bit_implement$0$domain$$type_library$ 
02:0005BAD0 $two16$bit_implement$0$domain$$type_library$ 
--- From 'Obj\programcontrol.09950828.obj'
02:0005BAE0 $exceptionRaiser$programControl_class$0$domain$$type_library$ 
02:0005BAF0 $deObject$programControl_implement$0$domain$$type_library$ 
--- From 'Obj\reflection.9A16C2FF.obj'
02:0005BB00 $typeKind$pfc\reflection\reflection_class$0$domain$$type_library$ 
02:0005BB10 $anyTermValue$pfc\reflection\reflection_native_class$0$domain$$type_library$ 
02:0005BB20 $factDbValue$pfc\reflection\reflection_native_class$0$domain$$type_library$ 
02:0005BB30 $prologPredicateValue$pfc\reflection\reflection_native_class$0$domain$$type_library$ 
02:0005BB40 $predicateMode$pfc\reflection\reflection_class$0$domain$$type_library$ 
02:0005BB50 $functor$pfc\reflection\reflection_class$0$domain$$type_library$ 
02:0005BB60 $callingConvention$pfc\reflection\reflection_class$0$domain$$type_library$ 
--- From 'Obj\registry.9E3F9277.obj'
02:0005BB70 $rootKey$registry_class$0$domain$$type_library$ 
02:0005BB80 $registryView$registry_class$0$domain$$type_library$ 
--- From 'Obj\inputstreamsupport.CF2B28B0.obj'
02:0005BB90 $inputSupport@objectDB$inputSupport_implement$0$domain$$type_library$ 
--- From 'Obj\outputstreamsupport.DD5669F3.obj'
02:0005BBA0 $outputSupport@objectDB$outputSupport_implement$0$domain$$type_library$ 
--- From 'Obj\stream.6FDF4122.obj'
02:0005BBB0 $stdioState@objectDB$stdioState_implement$0$domain$$type_library$ 
02:0005BBC0 $stdio@classDB$stdio_implement$0$domain$$type_library$ 
02:0005BBD0 $outputStream_null@classDB$outputStream_null_implement$0$domain$$type_library$ 
02:0005BBE0 $inputStream_null@classDB$inputStream_null_implement$0$domain$$type_library$ 
--- From 'Obj\string.C639126F.obj'
02:0005BBF0 $tuple$core_class$2$domain$$type_library$2$EA1C4A82${::real,::string}$ 
02:0005BC00 $caseSensitivity$string_class$0$domain$$type_library$ 
02:0005BC10 $adjustBehaviour$string_class$0$domain$$type_library$ 
02:0005BC20 $adjustSide$string_class$0$domain$$type_library$ 
02:0005BC30 $oneSymbolString$string_implement$0$domain$$type_library$ 
02:0005BC40 $outputStream_string@objectDB$outputStream_string_implement$0$domain$$type_library$ 
02:0005BC50 $anonymous$c0$1$getstring/2nf$outputStream_string$outputStream_string_implement$0$domain$$type_library$ 
02:0005BC60 $anonymous$c0$1$getstring/3nf$outputStream_string$outputStream_string_implement$0$domain$$type_library$ 
02:0005BC70 $anonymous$c0$1$getstring/4nf$outputStream_string$outputStream_string_implement$0$domain$$type_library$ 
02:0005BC80 $anonymous$c0$1$getstring/5nf$outputStream_string$outputStream_string_implement$0$domain$$type_library$ 
02:0005BC90 $inputStream_string@objectDB$inputStream_string_implement$0$domain$$type_library$ 
047000:014CA0 01AB20   VIPClass::VIPClass::.rdata F=4
--- From 'Obj\varm.40D08892.obj'
02:0005BCA0 class$varM_unsigned 
02:0005BD74 class$varM_unsigned$vtable$ 
02:0005BE60 class$varM_reference{@Term} 
02:0005BE9C $reference$varM_reference{@Term}_class$0$domain$ 
02:0005BF38 class$varM_reference{@Term}$vtable$ 
02:0005C080 class$varM_optional{@Term} 
02:0005C170 class$varM_optional{@Term}$vtable$ 
02:0005C290 class$varM_integer 
02:0005C364 class$varM_integer$vtable$ 
02:0005C440 class$varM_boolean 
02:0005C514 class$varM_boolean$vtable$ 
02:0005C5E0 class$varM{@Term} 
02:0005C800 class$varM{@Term}$vtable$ 
--- From 'Obj\vpidomains.05891DA9.obj'
02:0005CC10 class$vpiOwnerDraw 
02:0005CCA0 class$vpiDomains 
--- From 'Obj\gui_api.660F5D37.obj'
02:0005CCD8 $pnt$vpiDomains_class$0$domain$ 
02:0005CD14 $rct$vpiDomains_class$0$domain$ 
--- From 'Obj\vpidomains.05891DA9.obj'
02:0005CD48 $brush$vpiDomains_class$0$domain$ 
02:0005CD80 $pen$vpiDomains_class$0$domain$ 
02:0005CDC8 $drawtools$vpiDomains_class$0$domain$ 
02:0005CE28 $menu$vpiDomains_class$0$domain$ 
02:0005CE50 $keyModifier$vpiDomains_class$0$domain$ 
02:0005CE98 $acceleratorKey$vpiDomains_class$0$domain$ 
02:0005CF38 $menuItem$vpiDomains_class$0$domain$ 
02:0005D2A0 $event$vpiDomains_class$0$domain$ 
02:0005D3D0 $controlInfo$vpiDomains_class$0$domain$ 
02:0005D474 $stateInfo$vpiDomains_class$0$domain$ 
02:0005D5C4 $windef$vpiDomains_class$0$domain$ 
02:0005D61C $wdef$vpiDomains_class$0$domain$ 
02:0005D63C $errhandler$vpiDomains_class$0$domain$ 
02:0005D654 $eHandler$vpiDomains_class$0$domain$ 
02:0005D684 $accelerator$vpiDomains_class$0$domain$ 
02:0005D6EC $bitmapId$vpiDomains_class$0$domain$ 
02:0005D728 $ddeserviceInfo$vpiDomains_class$0$domain$ 
02:0005D794 $ddedata$vpiDomains_class$0$domain$ 
02:0005D8F8 $ddeevent$vpiDomains_class$0$domain$ 
02:0005D96A $alignment$vpiDomains_class$0$domain$ 
--- From 'Obj\console_api.63955AF5.obj'
02:0005E200 class$console_native 
02:0005E244 $coord$console_native_class$0$domain$ 
02:0005E2B4 $consoleScreenBufferInfo$console_native_class$0$domain$ 
02:0005E30C $key_event_record$console_native_class$0$domain$ 
02:0005E360 $mouse_event_record$console_native_class$0$domain$ 
02:0005E3A0 $char_info$console_native_class$0$domain$ 
02:0005E3EC $small_rect$console_native_class$0$domain$ 
02:0005E40C $handlerRoutine$console_native_class$0$domain$ 
02:0005E590 class$console_api 
--- From 'Obj\exe_api.BB59C7F0.obj'
02:0005E620 class$exe_native 
02:0005E6B0 class$exe_api 
02:0005E6F6 $runMode$exe_api_class$0$domain$ 
02:0005E74A $coInit$exe_api_class$0$domain$ 
--- From 'Obj\filesystem_api.D2434073.obj'
02:0005E880 class$lZ_fileSystem_native 
02:0005E8DC $ofStruct$lZ_fileSystem_native_class$0$domain$ 
02:0005E9B0 class$fileSystem_native 
02:0005EA3C $fileInfo$fileSystem_native_class$0$domain$ 
02:0005EAAC $fileAttributesInfo$fileSystem_native_class$0$domain$ 
02:0005EB44 $win32_find_data$fileSystem_native_class$0$domain$ 
02:0005EC52 $file_info_by_handle_class$fileSystem_native_class$0$domain$ 
02:0005ECBC $fileIOCompletionRoutine$fileSystem_native_class$0$domain$ 
02:0005ED1A $fileAction$fileSystem_native_class$0$domain$ 
02:0005ED80 $file_notify_information$fileSystem_native_class$0$domain$ 
02:0005EDC0 $overlapped$fileSystem_native_class$0$domain$ 
02:0005EE7C $openFileName$fileSystem_native_class$0$domain$ 
02:0005EE9C $oFNHookProc$fileSystem_native_class$0$domain$ 
02:0005EEC8 $uSE_INFO_0$fileSystem_native_class$0$domain$ 
02:0005EEF8 $$inline_260$fileSystem_native_class$1$domain$ 
02:0005EF28 $$inline_14$fileSystem_native_class$1$domain$ 
02:0005F5B0 class$fileSystem_api 
02:0005F63E $fileAttributeAtom$fileSystem_api_class$0$domain$ 
02:0005F6AA $accessPermit$fileSystem_api_class$0$domain$ 
--- From 'Obj\gui_api.660F5D37.obj'
02:0005FB10 class$gui_native 
02:0005FBA4 $logfont$gui_native_class$0$domain$ 
02:0005FBE0 $mouseMovePoint$gui_native_class$0$domain$ 
02:0005FC00 $enumDesktopProc$gui_native_class$0$domain$ 
02:0005FC18 $enumWindowStationProc$gui_native_class$0$domain$ 
02:0005FC48 $copyDataStruct$gui_native_class$0$domain$ 
02:0005FC84 $trackMouseEvent$gui_native_class$0$domain$ 
02:0005FCE4 $msg$gui_native_class$0$domain$ 
02:0005FD04 $sendAsyncProc$gui_native_class$0$domain$ 
02:0005FD1C $wndProc$gui_native_class$0$domain$ 
02:0005FD70 $wndClassEx$gui_native_class$0$domain$ 
02:0005FDCC $createstruct$gui_native_class$0$domain$ 
02:0005FE0C $flashInfo$gui_native_class$0$domain$ 
02:0005FE54 $windowPos$gui_native_class$0$domain$ 
02:0005FEC4 $windowPlacement$gui_native_class$0$domain$ 
02:0005FF44 $windowInfo$gui_native_class$0$domain$ 
02:0005FFA0 $monitorInfo$gui_native_class$0$domain$ 
02:00060008 $monitorInfoEx$gui_native_class$0$domain$ 
02:00060028 $monitorEnumProc$gui_native_class$0$domain$ 
02:0006007C $dlgTemplate$gui_native_class$0$domain$ 
02:000600D8 $dlgItemTemplate$gui_native_class$0$domain$ 
02:00060188 $dlgTemplateEx$gui_native_class$0$domain$ 
02:000601A8 $timerProc$gui_native_class$0$domain$ 
02:000601E4 $accel$gui_native_class$0$domain$ 
02:00060240 $menuItemInfo$gui_native_class$0$domain$ 
02:00060280 $drawTextParams$gui_native_class$0$domain$ 
02:000602A0 $grayStringProc$gui_native_class$0$domain$ 
02:000602B8 $drawStateProc$gui_native_class$0$domain$ 
02:000602E4 $size$gui_native_class$0$domain$ 
02:00060390 $textmetric$gui_native_class$0$domain$ 
02:000603F8 $paintStruct$gui_native_class$0$domain$ 
02:00060418 $propEnumProc$gui_native_class$0$domain$ 
02:00060470 $helpInfo$gui_native_class$0$domain$ 
02:00060490 $wndEnumProc$gui_native_class$0$domain$ 
02:000604CA $gaFlags$gui_native_class$0$domain$ 
02:000604F0 $hookProc$gui_native_class$0$domain$ 
02:00060528 $kbdllhookstruct$gui_native_class$0$domain$ 
02:00060568 $iconInfo$gui_native_class$0$domain$ 
02:000605B4 $buttonImageList$gui_native_class$0$domain$ 
02:000605D4 $button_imageList_align$gui_native_class$0$domain$ 
02:0006061C $nmBcHotItem$gui_native_class$0$domain$ 
02:00060670 $button_splitInfo$gui_native_class$0$domain$ 
02:000606C0 $nmBcDropdown$gui_native_class$0$domain$ 
02:000606F8 $nmhdr$gui_native_class$0$domain$ 
02:00060764 $nmCustomDraw$gui_native_class$0$domain$ 
02:000607AC $scrollInfo$gui_native_class$0$domain$ 
02:00060830 $scrollBarInfo$gui_native_class$0$domain$ 
02:00060868 $logbrush$gui_native_class$0$domain$ 
02:000608B0 $tcItem$gui_native_class$0$domain$ 
02:000608E4 $tagInitCommonControlsEx$gui_native_class$0$domain$ 
02:00060924 $logPalette$gui_native_class$0$domain$ 
02:00060968 $mouseInput$gui_native_class$0$domain$ 
02:000609B8 $keybdInput$gui_native_class$0$domain$ 
02:000609FC $hardwareInput$gui_native_class$0$domain$ 
02:00060A1C $inputUnion$gui_native_class$0$domain$ 
02:00060A68 $input$gui_native_class$0$domain$ 
02:00060AD8 $toolinfo$gui_native_class$0$domain$ 
02:00060B40 $nmttdispInfo$gui_native_class$0$domain$ 
02:00060B8C $blendFunction$gui_native_class$0$domain$ 
02:00060BF4 $chooseFont$gui_native_class$0$domain$ 
02:00060C98 $printdlg$gui_native_class$0$domain$ 
02:00060D18 $printdlgEx$gui_native_class$0$domain$ 
02:00060D58 $inputUnion_mi$gui_native_class$0$domain$ 
02:00060D98 $inputUnion_ki$gui_native_class$0$domain$ 
02:00060DD8 $inputUnion_hi$gui_native_class$0$domain$ 
02:00060E08 $$inline_32$gui_native_class$1$domain$ 
02:00060E38 $$inline_256$gui_native_class$1$domain$ 
02:00060E68 $$inline_80$gui_native_class$1$domain$ 
02:000615E0 class$gui_api 
02:00061624 $scrollInfo$gui_api_class$0$domain$ 
02:00061664 $windowPlacement$gui_api_class$0$domain$ 
02:000616F0 $dlgTemplate$gui_api_class$0$domain$ 
02:00061754 $varArray$gui_api_class$0$domain$ 
02:000617D4 $dlgItemTemplate$gui_api_class$0$domain$ 
02:00061810 $monitorInfo$gui_api_class$0$domain$ 
--- From 'Obj\locale_api.813BCFA0.obj'
02:00061A10 class$locale_native 
02:00061A34 $stdBoolFunc$locale_native_class$1$domain$ 
02:00061A4C $stdBoolFunc$locale_native_class$2$domain$ 
02:00061A64 $stdBoolFunc$locale_native_class$4$domain$ 
02:00061A7C $stdBoolFunc$locale_native_class$5$domain$ 
02:00061AB8 $numberfmt$locale_native_class$0$domain$ 
02:00061B80 class$locale_api 
--- From 'Obj\memory_api.61C8F3DA.obj'
02:00061C10 class$memory_native 
02:00061C5C $memory_basic_information$memory_native_class$0$domain$ 
02:00061CC4 $memoryStatusEx$memory_native_class$0$domain$ 
02:00061DB0 class$memory_api 
--- From 'Obj\multithread_api.6656783C.obj'
02:00061E40 class$multiThread_native 
02:00061E64 $timerAPCProc$multiThread_native_class$0$domain$ 
02:00061EFC $startupInfo$multiThread_native_class$0$domain$ 
02:00061F38 $processInformation$multiThread_native_class$0$domain$ 
02:00061F58 $threadRunnable$multiThread_native_class$0$domain$ 
02:00061F94 $critical_section$multiThread_native_class$0$domain$ 
02:00061FD4 $m128A$multiThread_native_class$0$domain$ 
02:0006202C $selectorEntry$multiThread_native_class$0$domain$ 
02:0006207C $cache_descriptor$multiThread_native_class$0$domain$ 
02:000620D4 $system_logical_processor_information$multiThread_native_class$0$domain$ 
02:000622B0 class$multiThread_api 
--- From 'Obj\registry_api.32A69E85.obj'
02:00062410 class$registry_native 
02:0006244C $securityAttr$registry_native_class$0$domain$ 
02:00062510 class$registry_api 
--- From 'Obj\runtime_api.77D75C02.obj'
02:000625B0 class$runtime_api 
--- From 'Obj\shell_api.FFCE11BE.obj'
02:00062700 class$shell_native 
02:0006276C $shellExecuteInfo$shell_native_class$0$domain$ 
02:000627CC $appBarData$shell_native_class$0$domain$ 
--- From 'Obj\filesystem.AD950C87.obj'
02:00062818 $shFileOpStruct$shell_native_class$0$domain$ 
--- From 'Obj\shell_api.FFCE11BE.obj'
02:00062854 $sHNameMapping$shell_native_class$0$domain$ 
02:00062898 $shQueryRBinfo$shell_native_class$0$domain$ 
02:00062944 $notifyIcondata$shell_native_class$0$domain$ 
02:000629A4 $sHFileInfo$shell_native_class$0$domain$ 
--- From 'Obj\filesystem.AD950C87.obj'
02:000629F0 $browseinfo$shell_native_class$0$domain$ 
--- From 'Obj\shell_api.FFCE11BE.obj'
02:00062A10 $browseCallbackProc$shell_native_class$0$domain$ 
02:00062A86 $shard$shell_native_class$0$domain$ 
02:00062AD0 $$inline_128$shell_native_class$1$domain$ 
02:00062B00 $$inline_256$shell_native_class$1$domain$ 
02:00062B30 $$inline_64$shell_native_class$1$domain$ 
02:00062B60 $$inline_260$shell_native_class$1$domain$ 
02:00062B90 $$inline_80$shell_native_class$1$domain$ 
02:00062E90 class$shell_api 
--- From 'Obj\string_api.CAAD362C.obj'
02:00062F20 class$string_native 
--- From 'Obj\string8_api.5ED5FF25.obj'
02:00062FC0 class$string8_native 
02:00063060 class$string8_api 
--- From 'Obj\systeminformation_api.344506F5.obj'
02:000630F0 class$systemInformation_native 
02:00063168 $system_Info$systemInformation_native_class$0$domain$ 
02:000631C8 $osVersionInfo$systemInformation_native_class$0$domain$ 
02:00063244 $osVersionInfoEX$systemInformation_native_class$0$domain$ 
02:000632F8 $nonclientMetricsXP$systemInformation_native_class$0$domain$ 
02:000633B4 $nonclientMetrics$systemInformation_native_class$0$domain$ 
02:000633E4 $$inline_128$systemInformation_native_class$1$domain$ 
02:00063570 class$systemInformation_api 
--- From 'Obj\time_api.1A6CCE63.obj'
02:000636D0 class$time_native 
02:00063738 $systemTime$time_native_class$0$domain$ 
02:000637B4 $timeZoneAPI$time_native_class$0$domain$ 
02:000637E8 $fileTime$time_native_class$0$domain$ 
02:00063848 $reg_tzi_format$time_native_class$0$domain$ 
02:00063878 $$inline_32$time_native_class$1$domain$ 
02:00063980 class$time_api 
--- From 'Obj\windowsapi.93A73582.obj'
02:00063A00 class$windowsAPI 
02:00063A60 $security_descriptor$windowsAPI_class$0$domain$ 
02:00063AB0 $acl$windowsAPI_class$0$domain$ 
02:00063AE8 $security_attributes$windowsAPI_class$0$domain$ 
--- From 'Obj\main.A22FE9BF.obj'
02:00063BB0 class$_builtIn 
--- From 'Obj\filesystem.AD950C87.obj'
02:00063BD4 $integer$_builtIn_class$0$domain$ 
--- From 'Obj\string8.ACF7B790.obj'
02:00063BF4 $unsigned$_builtIn_class$0$domain$ 
--- From 'Obj\string.C639126F.obj'
02:00063C14 $real$_builtIn_class$0$domain$ 
--- From 'Obj\math.FC1B1006.obj'
02:00063C40 $real32$_builtIn_class$0$domain$ 
--- From 'Obj\main.A22FE9BF.obj'
02:00063C6C $$byte$_builtIn_class$0$domain$ 
--- From 'Obj\string8.ACF7B790.obj'
02:00063C8C $string$_builtIn_class$0$domain$ 
--- From 'Obj\main.A22FE9BF.obj'
02:00063CA0 $symbol$_builtIn_class$0$domain$ 
--- From 'Obj\string8.ACF7B790.obj'
02:00063CB4 $string8$_builtIn_class$0$domain$ 
--- From 'Obj\string.C639126F.obj'
02:00063CC8 $char$_builtIn_class$0$domain$ 
--- From 'Obj\exceptiondump.364682AD.obj'
02:00063CDC $binary$_builtIn_class$0$domain$ 
02:00063CF4 $binaryNonAtomic$_builtIn_class$0$domain$ 
--- From 'Obj\string.C639126F.obj'
02:00063D0C $pointer$_builtIn_class$0$domain$ 
--- From 'Obj\memory.89ECA104.obj'
02:00063D20 $handle$_builtIn_class$0$domain$ 
--- From 'Obj\main.A22FE9BF.obj'
02:00063D34 $factdb$_builtIn_class$0$domain$ 
02:00063D48 $...$_builtIn_class$0$domain$ 
--- From 'Obj\exceptiondump.364682AD.obj'
02:00063D5C $integer64$_builtIn_class$0$domain$ 
02:00063D84 $unsigned64$_builtIn_class$0$domain$ 
--- From 'Obj\main.A22FE9BF.obj'
02:00063DAC $any$_builtIn_class$0$domain$ 
02:00063DC0 $integerNative$_builtIn_class$0$domain$ 
--- From 'Obj\exceptiondump.364682AD.obj'
02:00063DE0 $unsignedNative$_builtIn_class$0$domain$ 
--- From 'Obj\namedvalue.9E6FA98D.obj'
02:00063E30 $*$_builtIn_class$1$domain$ 
--- From 'Obj\main.A22FE9BF.obj'
02:00063E60 $_someType$_builtIn_class$0$domain$ 
--- From 'Obj\exceptiondump.364682AD.obj'
02:00063E96 $boolean$_builtIn_class$0$domain$ 
--- From 'Obj\main.A22FE9BF.obj'
02:00063EDA $compareResult$_builtIn_class$0$domain$ 
02:00063F10 $$inline_1$_builtIn_class$1$domain$ 
--- From 'Obj\outputstreamsupport.DD5669F3.obj'
02:00064160 class$_global 
--- From 'Obj\main.A22FE9BF.obj'
02:000641A0 class$family 
02:00064290 class$dog1 
02:00064350 class$dog 
--- From 'Obj\exe.CB067240.obj'
02:00064390 class$mainExe 
--- From 'Obj\binary.A4D00680.obj'
02:00064480 class$outputStream_binary 
02:00064748 class$outputStream_binary$vtable$  (Idle)
02:000649A0 class$inputStream_binary 
02:00064CB8 class$inputStream_binary$vtable$  (Idle)
02:00064EB0 class$binary_exception 
02:00064F40 class$binary 
--- From 'Obj\boolean.E82F26DC.obj'
02:00064FA0 class$boolean 
--- From 'Obj\redblackset.81A33291.obj'
02:00065010 class$redBlackSet 
--- From 'Obj\setm_redblack.5372EEBC.obj'
02:00065050 $set$redBlackSet_class$1$domain$ 
--- From 'Obj\redblackset.81A33291.obj'
02:000650C4 $setRep$redBlackSet_class$1$domain$ 
--- From 'Obj\redblacktree.34565F50.obj'
02:00065270 class$redBlackTree 
--- From 'Obj\mapm_redblack.88A5A755.obj'
02:000652BC $tree$redBlackTree_class$2$domain$ 
--- From 'Obj\redblacktree.34565F50.obj'
02:00065338 $treeRep$redBlackTree_class$2$domain$ 
02:00065376 $uniqueKey$redBlackTree_class$0$domain$ 
02:000653AC $treeProperty$redBlackTree_class$1$domain$ 
--- From 'Obj\collectionmsupport.64B31F2A.obj'
02:00065690 class$collectionSupport\collectionSupport{@Type} 
02:00065738 class$collectionSupport\collectionSupport{@Type}$vtable$ 
--- From 'Obj\arraym_inline.0A13D119.obj'
02:000658E0 class$arrayM_inlineValue{@ItemType} 
02:00065D98 class$arrayM_inlineValue{@ItemType}$vtable$  (Idle)
02:00066160 class$arrayM_inline{@ItemType} 
02:00066604 class$arrayM_inline{@ItemType}$vtable$  (Idle)
--- From 'Obj\mapm_redblack.88A5A755.obj'
02:000669B0 class$mapM_redBlack{@Key,@Data} 
02:00066E38 class$mapM_redBlack{@Key,@Data}$vtable$  (Idle)
--- From 'Obj\setm_redblack.5372EEBC.obj'
02:000671B0 class$setM_redBlack{@Type} 
02:00067414 class$setM_redBlack{@Type}$vtable$  (Idle)
--- From 'Obj\mapmsupport.A422FE9A.obj'
02:000676B0 class$collectionSupportM\collectionMsupport{@Type} 
02:000677D0 class$collectionSupportM\collectionMsupport{@Type}$vtable$ 
02:000679C0 class$collectionSupportM\mapMSupport{@Key,@Data} 
02:00067B84 class$collectionSupportM\mapMSupport{@Key,@Data}$vtable$ 
--- From 'Obj\console.93C0DBD8.obj'
02:00067E20 class$outputStream_console 
02:00068094 class$outputStream_console$vtable$  (Idle)
02:000682F0 class$inputStream_console 
02:000686A0 class$inputStream_console$vtable$  (Idle)
02:00068920 class$console 
02:000689DC $event$console_class$0$domain$ 
--- From 'Obj\core.9A8E3854.obj'
02:00068C20 class$core 
02:00068C50 $unit$core_class$0$domain$ 
--- From 'Obj\inputstreamsupport.CF2B28B0.obj'
02:00068C70 $unsigned8$core_class$0$domain$ 
--- From 'Obj\string8.ACF7B790.obj'
02:00068C90 $unsigned16$core_class$0$domain$ 
--- From 'Obj\memory.89ECA104.obj'
02:00068CC4 $unsigned64_struct$core_class$0$domain$ 
--- From 'Obj\core.9A8E3854.obj'
02:00068CE4 $integer8$core_class$0$domain$ 
02:00068D04 $integer16$core_class$0$domain$ 
--- From 'Obj\memory.89ECA104.obj'
02:00068D38 $integer64_struct$core_class$0$domain$ 
--- From 'Obj\string.C639126F.obj'
02:00068D6C $namedValue$core_class$0$domain$ 
--- From 'Obj\core.9A8E3854.obj'
02:00068D8C $classInfo$core_class$0$domain$ 
02:00068DBC $exception$core_class$0$domain$ 
02:00068E30 $nativeGuid$core_class$0$domain$ 
02:00068E50 $byteCountOptional$core_class$0$domain$ 
--- From 'Obj\filesystem.AD950C87.obj'
02:00068E70 $byteCount$core_class$0$domain$ 
--- From 'Obj\core.9A8E3854.obj'
02:00068E90 $charCountOptional$core_class$0$domain$ 
02:00068EB0 $charCount$core_class$0$domain$ 
--- From 'Obj\reflection.9A16C2FF.obj'
02:00068ED0 $positiveOptional$core_class$0$domain$ 
--- From 'Obj\string.C639126F.obj'
02:00068EF0 $positive$core_class$0$domain$ 
02:00068F24 $tuple$core_class$2$domain$ 
--- From 'Obj\list.50589F40.obj'
02:00068F5C $tuple$core_class$3$domain$ 
02:00068F98 $tuple$core_class$4$domain$ 
02:00068FD8 $tuple$core_class$5$domain$ 
02:0006901C $tuple$core_class$6$domain$ 
02:00069064 $tuple$core_class$7$domain$ 
02:000690B0 $tuple$core_class$8$domain$ 
02:00069100 $tuple$core_class$9$domain$ 
02:00069154 $tuple$core_class$10$domain$ 
02:000691AC $tuple$core_class$11$domain$ 
02:00069208 $tuple$core_class$12$domain$ 
--- From 'Obj\string.C639126F.obj'
02:00069254 $optional$core_class$1$domain$ 
--- From 'Obj\core.9A8E3854.obj'
02:000692A8 $either$core_class$2$domain$ 
02:000692CC $function$core_class$1$domain$ 
02:000692E4 $function$core_class$2$domain$ 
02:000692FC $function$core_class$3$domain$ 
02:00069314 $function$core_class$4$domain$ 
02:0006932C $function$core_class$5$domain$ 
02:00069344 $function$core_class$6$domain$ 
02:0006935C $function$core_class$7$domain$ 
02:00069374 $function$core_class$8$domain$ 
02:0006938C $function$core_class$9$domain$ 
02:000693A4 $function$core_class$10$domain$ 
02:000693BC $function$core_class$11$domain$ 
02:000693D4 $function_dt$core_class$1$domain$ 
02:000693EC $function_dt$core_class$2$domain$ 
02:00069404 $function_dt$core_class$3$domain$ 
02:0006941C $function_dt$core_class$4$domain$ 
02:00069434 $function_dt$core_class$5$domain$ 
02:0006944C $function_dt$core_class$6$domain$ 
02:00069464 $function_dt$core_class$7$domain$ 
02:0006947C $function_dt$core_class$8$domain$ 
02:00069494 $function_dt$core_class$9$domain$ 
02:000694AC $function_dt$core_class$10$domain$ 
02:000694C4 $function_dt$core_class$11$domain$ 
02:000694DC $function_nd$core_class$1$domain$ 
02:000694F4 $function_nd$core_class$2$domain$ 
02:0006950C $function_nd$core_class$3$domain$ 
02:00069524 $function_nd$core_class$4$domain$ 
02:0006953C $function_nd$core_class$5$domain$ 
02:00069554 $function_nd$core_class$6$domain$ 
02:0006956C $function_nd$core_class$7$domain$ 
02:00069584 $function_nd$core_class$8$domain$ 
02:0006959C $function_nd$core_class$9$domain$ 
02:000695B4 $function_nd$core_class$10$domain$ 
02:000695CC $function_nd$core_class$11$domain$ 
02:000695E4 $predicate$core_class$0$domain$ 
--- From 'Obj\outputstreamsupport.DD5669F3.obj'
02:000695FC $predicate$core_class$1$domain$ 
--- From 'Obj\core.9A8E3854.obj'
02:00069614 $predicate$core_class$2$domain$ 
02:0006962C $predicate$core_class$3$domain$ 
02:00069644 $predicate$core_class$4$domain$ 
02:0006965C $predicate$core_class$5$domain$ 
02:00069674 $predicate$core_class$6$domain$ 
02:0006968C $predicate$core_class$7$domain$ 
02:000696A4 $predicate$core_class$8$domain$ 
02:000696BC $predicate$core_class$9$domain$ 
02:000696D4 $predicate$core_class$10$domain$ 
02:000696EC $predicate_dt$core_class$0$domain$ 
02:00069704 $predicate_dt$core_class$1$domain$ 
02:0006971C $predicate_dt$core_class$2$domain$ 
02:00069734 $predicate_dt$core_class$3$domain$ 
02:0006974C $predicate_dt$core_class$4$domain$ 
02:00069764 $predicate_dt$core_class$5$domain$ 
02:0006977C $predicate_dt$core_class$6$domain$ 
02:00069794 $predicate_dt$core_class$7$domain$ 
02:000697AC $predicate_dt$core_class$8$domain$ 
02:000697C4 $predicate_dt$core_class$9$domain$ 
02:000697DC $predicate_dt$core_class$10$domain$ 
02:000697F4 $predicate_nd$core_class$0$domain$ 
02:0006980C $predicate_nd$core_class$1$domain$ 
02:00069824 $predicate_nd$core_class$2$domain$ 
02:0006983C $predicate_nd$core_class$3$domain$ 
02:00069854 $predicate_nd$core_class$4$domain$ 
02:0006986C $predicate_nd$core_class$5$domain$ 
02:00069884 $predicate_nd$core_class$6$domain$ 
02:0006989C $predicate_nd$core_class$7$domain$ 
02:000698B4 $predicate_nd$core_class$8$domain$ 
02:000698CC $predicate_nd$core_class$9$domain$ 
02:000698E4 $predicate_nd$core_class$10$domain$ 
02:000698FC $comparator$core_class$1$domain$ 
02:00069914 $comparator$core_class$2$domain$ 
02:00069942 $sortOrder$core_class$0$domain$ 
--- From 'Obj\string.C639126F.obj'
02:00069AF8 $value$core_class$0$domain$ 
--- From 'Obj\core.9A8E3854.obj'
02:00069B70 $sourceCursor$core_class$0$domain$ 
--- From 'Obj\exceptiondump.364682AD.obj'
02:00069BA8 $programPoint$core_class$0$domain$ 
--- From 'Obj\core.9A8E3854.obj'
02:00069BDE $allowBoolean$core_class$0$domain$ 
02:00069C16 $defaultActionBoolean$core_class$0$domain$ 
--- From 'Obj\event.5052287E.obj'
02:0006A110 class$event7{@Source,@Type1,@Type2,@Type3,@Type4,@Type5,@Type6,@Type7} 
02:0006A5C0 class$event7{@Source,@Type1,@Type2,@Type3,@Type4,@Type5,@Type6,@Type7}$vtable$ 
02:0006B430 class$event6{@Source,@Type1,@Type2,@Type3,@Type4,@Type5,@Type6} 
02:0006B834 class$event6{@Source,@Type1,@Type2,@Type3,@Type4,@Type5,@Type6}$vtable$ 
02:0006C430 class$event5{@Source,@Type1,@Type2,@Type3,@Type4,@Type5} 
02:0006C794 class$event5{@Source,@Type1,@Type2,@Type3,@Type4,@Type5}$vtable$ 
02:0006D160 class$event4{@Source,@Type1,@Type2,@Type3,@Type4} 
02:0006D490 class$event4{@Source,@Type1,@Type2,@Type3,@Type4}$vtable$ 
02:0006DD80 class$event3{@Source,@Type1,@Type2,@Type3} 
02:0006E07C class$event3{@Source,@Type1,@Type2,@Type3}$vtable$ 
02:0006E8A0 class$event2{@Source,@Type1,@Type2} 
02:0006EB68 class$event2{@Source,@Type1,@Type2}$vtable$ 
02:0006F2C0 class$event1{@Source,@Type1} 
02:0006F554 class$event1{@Source,@Type1}$vtable$ 
02:0006FBE0 class$event0{@Source} 
02:0006FE40 class$event0{@Source}$vtable$ 
--- From 'Obj\exception.B3237F89.obj'
02:000703F0 class$runtime_exception 
02:00070480 class$exception_exception 
02:00070520 class$exception 
--- From 'Obj\exceptiondump.364682AD.obj'
02:0007055A $kind$exception_class$0$domain$ 
--- From 'Obj\exception.B3237F89.obj'
02:00070594 $programPointDescriptor$exception_class$0$domain$ 
--- From 'Obj\exceptiondump.364682AD.obj'
02:000705F4 $descriptor$exception_class$0$domain$ 
02:0007063C $traceInfo$exception_class$0$domain$ 
02:00070694 $lineInfo$exception_class$0$domain$ 
--- From 'Obj\exception.B3237F89.obj'
02:000707B0 class$errorDescriptorInformation 
02:000708CC class$errorDescriptorInformation$vtable$ 
--- From 'Obj\exceptiondump.364682AD.obj'
02:00070AC0 class$exceptionDump 
--- From 'Obj\filesystem.AD950C87.obj'
02:00070B60 class$outputStream_file 
02:00070E40 class$outputStream_file$vtable$  (Idle)
02:00071090 class$messageFile 
02:0007122C class$messageFile$vtable$ 
02:000716A0 class$inputStream_file 
02:00071AE8 class$inputStream_file$vtable$  (Idle)
02:00071DD0 class$fileVersion 
02:00071E10 $versionInformation$fileVersion_class$0$domain$ 
02:00071E5C $fileVersionInformation$fileVersion_class$0$domain$ 
02:000720F0 class$fileSystem_exception 
02:00072190 class$filename 
02:00072200 class$file 
02:00072252 $overwrite$file_class$0$domain$ 
02:00072300 class$directory 
02:0007236A $volumeType$directory_class$0$domain$ 
--- From 'Obj\list.50589F40.obj'
02:00072450 class$list 
--- From 'Obj\math.FC1B1006.obj'
02:00072D70 class$math_exception 
02:00072DF0 class$math 
02:00072E14 $inCircle$math_class$0$domain$ 
02:00072E40 $aPeriod$math_class$0$domain$ 
02:00072E6C $uReal$math_class$0$domain$ 
--- From 'Obj\memory.89ECA104.obj'
02:00072F00 class$weakReference{@Type} 
02:00072FC4 class$weakReference{@Type}$vtable$ 
02:00073110 class$weakPointer 
02:00073218 class$weakPointer$vtable$ 
02:00073330 class$memory 
02:00073370 $contextMap$memory_class$0$domain$ 
02:000733B2 $memoryKind$memory_class$0$domain$ 
02:000733E8 $pBinary$memory_class$0$domain$ 
02:00073418 $pBinaryNonAtomic$memory_class$0$domain$ 
02:00073448 $pByteCount$memory_class$0$domain$ 
--- From 'Obj\string8.ACF7B790.obj'
02:00073480 $pChar$memory_class$0$domain$ 
--- From 'Obj\memory.89ECA104.obj'
02:000734B8 $pChar8$memory_class$0$domain$ 
02:000734E8 $pCharCount$memory_class$0$domain$ 
02:00073518 $pHandle$memory_class$0$domain$ 
02:00073548 $pInteger$memory_class$0$domain$ 
02:00073580 $pInteger16$memory_class$0$domain$ 
02:000735B8 $pInteger64$memory_class$0$domain$ 
02:000735F0 $pInteger8$memory_class$0$domain$ 
02:00073620 $pIntegerNative$memory_class$0$domain$ 
02:00073650 $pObject$memory_class$0$domain$ 
02:00073680 $pPointer$memory_class$0$domain$ 
02:000736B8 $pReal$memory_class$0$domain$ 
02:000736E8 $pReal32$memory_class$0$domain$ 
--- From 'Obj\string.C639126F.obj'
02:00073718 $pString$memory_class$0$domain$ 
--- From 'Obj\memory.89ECA104.obj'
02:00073748 $pString8$memory_class$0$domain$ 
02:00073778 $pUnsigned$memory_class$0$domain$ 
02:000737B0 $pUnsigned16$memory_class$0$domain$ 
02:000737E8 $pUnsigned64$memory_class$0$domain$ 
--- From 'Obj\string8.ACF7B790.obj'
02:00073820 $pUnsigned8$memory_class$0$domain$ 
--- From 'Obj\memory.89ECA104.obj'
02:00073850 $pUnsignedNative$memory_class$0$domain$ 
02:00073AF0 class$bit 
02:00073B14 $unsigned4$bit_class$0$domain$ 
--- From 'Obj\namedvalue.9E6FA98D.obj'
02:00073C00 class$namedValue 
--- From 'Obj\programcontrol.09950828.obj'
02:00073C80 class$programControl 
02:00073CA4 $exceptionRaiser$programControl_class$0$domain$ 
--- From 'Obj\reflection.9A16C2FF.obj'
02:00073D90 class$pfc\reflection\reflection_native 
02:00073DC8 $anyTermValue$pfc\reflection\reflection_native_class$0$domain$ 
02:00073DFC $factDbValue$pfc\reflection\reflection_native_class$0$domain$ 
02:00073E30 $prologPredicateValue$pfc\reflection\reflection_native_class$0$domain$ 
02:00073F40 class$pfc\reflection\reflection 
02:00074082 $typeKind$pfc\reflection\reflection_class$0$domain$ 
02:00074142 $predicateMode$pfc\reflection\reflection_class$0$domain$ 
02:00074174 $functor$pfc\reflection\reflection_class$0$domain$ 
02:000741DA $callingConvention$pfc\reflection\reflection_class$0$domain$ 
--- From 'Obj\registry.9E3F9277.obj'
02:000746B0 class$registry_exception 
02:00074740 class$registry 
02:000747B6 $rootKey$registry_class$0$domain$ 
02:0007480E $registryView$registry_class$0$domain$ 
--- From 'Obj\std.8408A9CC.obj'
02:000749A0 class$std 
--- From 'Obj\string.C639126F.obj'
02:000749F0 class$inputSupport 
02:00074AB0 class$inputSupport$vtable$ 
02:00074C30 class$outputSupport 
02:00074D0C class$outputSupport$vtable$ 
--- From 'Obj\stream.6FDF4122.obj'
02:00074EF0 class$stream_exception 
02:00074F80 class$stdioState 
02:00075024 class$stdioState$vtable$ 
02:00075160 class$stdio 
02:00075220 class$outputStream_null 
02:0007528C class$outputStream_null$vtable$ 
02:000753C0 class$inputStream_null 
02:0007542C class$inputStream_null$vtable$ 
--- From 'Obj\string.C639126F.obj'
02:00075570 class$string_exception 
02:00075600 class$string 
02:00075646 $caseSensitivity$string_class$0$domain$ 
02:0007568E $adjustBehaviour$string_class$0$domain$ 
02:000756CA $adjustSide$string_class$0$domain$ 
02:00075880 class$outputStream_string 
02:00075C80 class$outputStream_string$vtable$  (Idle)
02:00076230 class$inputStream_string 
02:00076554 class$inputStream_string$vtable$  (Idle)
--- From 'Obj\string8.ACF7B790.obj'
02:00076750 class$string8 
Frame 077000   Size 000050.  Name=< .gcroot>, 	Chars=C0000040h. [IRW]
077000:000000 00004C   .gcroot::.gcroot::.gcroot F=4
Frame 078000   Size 0006F0.  Name=<  VIPini>, 	Chars=40000040h. [IR]
078000:000000 000004   VIPini$A::VIPini$A::VIPini F=4
--- From 'Obj\main.A22FE9BF.obj'
04:00078000 _VIPStartOfClassDescriptors 
078000:000004 000294   VIPini$C::VIPini$C::VIPini F=4
078000:000298 000008   VIPini$E::VIPini$E::VIPini F=4
Frame 079000   Size 000010.  Name=<  VIPsym>, 	Chars=40000040h. [IR]
079000:000000 000004   VIPsym$A::VIPsym$A::VIPsym F=4
--- From 'Obj\main.A22FE9BF.obj'
05:00079000 _VIPStartOfSymbols 
079000:000004 000000   VIPsym$C::VIPsym$C::VIPsym F=4
079000:000004 000008   VIPsym$E::VIPsym$E::VIPsym F=4
Frame 07A000   Size 000F10.  Name=<  VIPtpd>, 	Chars=40000040h. [IR]
07A000:000000 000004   VIPtpd$A::VIPtpd$A::VIPtpd F=4
--- From 'Obj\main.A22FE9BF.obj'
06:0007A000 _VIPStartOfTypeDescriptors 
07A000:000004 000F04   VIPtpd$C::VIPtpd$C::VIPtpd F=4
07A000:000F08 000008   VIPtpd$E::VIPtpd$E::VIPtpd F=4
Frame 07B000   Size 000DD0.  Name=<  VIPtpl>, 	Chars=40000040h. [IR]
07B000:000000 000004   VIPtpl$A::VIPtpl$A::VIPtpl F=4
--- From 'Obj\main.A22FE9BF.obj'
07:0007B000 _VIPStartOfTypeLibraries 
07B000:000004 000DC4   VIPtpl$C::VIPtpl$C::VIPtpl F=4
07B000:000DC8 000008   VIPtpl$E::VIPtpl$E::VIPtpl F=4
Frame 07C000   Size 000170.  Name=<   .data>, 	Chars=C0000040h. [IRW]
07C000:000000 00015C   .data::DATA::DGROUP F=4
07C000:00015C 00000C   .bss::BSS::DGROUP F=4
Frame 07D000   Size 000320.  Name=<  PRODBG>, 	Chars=40000040h. [IR]
07D000:000000 000320   PRODBG::PRODBG::PRODBG F=4
--- Total Cnt   =  3902 --------
[import] 'Obj\gui_api.660F5D37.obj' USER32.dll. _GetMenuItemCount@4 
[import] 'Obj\memory.89ECA104.obj' vipRun.dll. ?bitXor@RunTime@VIP@@YAIII@Z 
[import] 'Obj\filesystem.AD950C87.obj' KERNEL32.dll. _SetFileTime@16 
[import] 'Obj\memory.89ECA104.obj' vipKernel.dll. ?memProf_ContextClose@Kernel@VIP@@YGXI@Z 
[import] 'Obj\std.8408A9CC.obj' vipRun.dll. ?addUnsigned64WOO_prolog@RunTime@VIP@@YG_K_K0@Z 
[import] 'Obj\memory.89ECA104.obj' vipRun.dll. ?sizeOfTerm@RunTime@VIP@@YGIQBVtypeLibrary@12@PAX@Z 
[import] 'Obj\filesystem.AD950C87.obj' VERSION.dll. _GetFileVersionInfoW@16 
[import] 'Obj\memory.89ECA104.obj' vipKernel.dll. ?memProf_ContextOpen@Kernel@VIP@@YGIII@Z 
[import] 'Obj\filesystem.AD950C87.obj' VERSION.dll. _GetFileVersionInfoSizeW@8 
[import] 'Obj\filesystem.AD950C87.obj' KERNEL32.dll. _GetFileType@4 
[import] 'Obj\gui_api.660F5D37.obj' USER32.dll. _CreateDialogIndirectParamW@20 
[import] 'Obj\console.93C0DBD8.obj' KERNEL32.dll. _FillConsoleOutputCharacterW@20 
[import] 'Obj\gui_api.660F5D37.obj' USER32.dll. _GetScrollRange@16 
[import] 'Obj\string.C639126F.obj' vipRun.dll. ?InitInputParser@RunTime@VIP@@YGPAVRInputStreamImpl@12@QAVRROBufferProvider@12@QAEI@Z 
[import] 'Obj\binary.A4D00680.obj' vipRun.dll. ?binarySearch@RunTime@VIP@@YAIPBEI0I@Z 
[import] 'Obj\console.93C0DBD8.obj' KERNEL32.dll. _SetConsoleCursorPosition@8 
[import] 'Obj\gui_api.660F5D37.obj' USER32.dll. _ScrollWindowEx@32 
[import] 'Obj\std.8408A9CC.obj' vipRun.dll. ?addInteger64_prolog@RunTime@VIP@@YG_J_J0@Z 
[import] 'Obj\binary.A4D00680.obj' vipRun.dll. ?calculateCRC@RunTime@VIP@@YAHQBVTBinary@@H@Z 
[import] 'Obj\string.C639126F.obj' vipRun.dll. ?FinishRetractWCTS@RunTime@VIP@@YGXPAVrFactItem@12@PAPAV312@@Z 
[import] 'Obj\exception.B3237F89.obj' KERNEL32.dll. _GetCurrentThreadId@0 
[import] 'Obj\string.C639126F.obj' vipRun.dll. ?InitWrite@RunTime@VIP@@YGPAVROutputStreamImpl@12@QAVRBufferProvider@12@@Z 
[import] 'Obj\gui_api.660F5D37.obj' USER32.dll. _GetUpdateRgn@12 
[import] 'Obj\memory.89ECA104.obj' vipKernel.dll. ?UnRegisterWeakPointer@Kernel@VIP@@YGXPAPAX@Z 
[import] 'Obj\gui_api.660F5D37.obj' USER32.dll. _GetUpdateRect@12 
[import] 'Obj\memory.89ECA104.obj' vipKernel.dll. ?RegisterWeakPointer@Kernel@VIP@@YGXPAPAXPAX@Z 
[import] 'Obj\gui_api.660F5D37.obj' vipRun.dll. ?ConvertExII@RunTime@VIP@@YGHPBVbaseIntegerDWordTypeDescriptor@12@PBV?$numericTypeDescriptor@H@12@HH@Z 
[import] 'Obj\filesystem.AD950C87.obj' vipRun.dll. ?searchBackCh@RunTime@VIP@@YGIPBGG@Z 
[import] 'Obj\filesystem.AD950C87.obj' VERSION.dll. _VerQueryValueW@16 
[import] 'Obj\string.C639126F.obj' vipRun.dll. ?AssertZNonDetermFactWCTS@RunTime@VIP@@YGXITRTerm@12@PAVrFactList@12@II@Z 
[import] 'Obj\inputstreamsupport.CF2B28B0.obj' vipRun.dll. ?ParseBytes@RunTime@VIP@@YGPBVTBinary@@QAVRInputStreamImpl@12@I@Z 
[import] 'Obj\string.C639126F.obj' vipRun.dll. ?trimFront@RunTime@VIP@@YAPBGPBG@Z 
[import] 'Obj\inputstreamsupport.CF2B28B0.obj' vipRun.dll. ?ParseString@RunTime@VIP@@YGPBGQAVRInputStreamImpl@12@I@Z 
[import] 'Obj\reflection.9A16C2FF.obj' vipRun.dll. __imp_?unsigned32TypeDescriptorVTBL_ptr@RunTime@VIP@@3PAXA 
[import] 'Obj\gui_api.660F5D37.obj' GDI32.dll. _GetTextExtentPoint32W@16 
[import] 'Obj\exe.CB067240.obj' KERNEL32.dll. _GetCommandLineW@0 
[import] 'Obj\registry.9E3F9277.obj' KERNEL32.dll. _FormatMessageW@28 
[import] 'Obj\exe.CB067240.obj' vipKernel.dll. ?GarbageCollector@Kernel@VIP@@YAXXZ 
[import] 'Obj\gui_api.660F5D37.obj' USER32.dll. _RegisterClassExW@4 
[import] 'Obj\math.FC1B1006.obj' vipRun.dll. ?universalNumericConvert4_ex@RunTime@VIP@@YGXPBVnumericTypeDescriptor_internal@12@0HPAX_N@Z 
[import] 'Obj\string.C639126F.obj' vipRun.dll. ?firstBranchObjectConversion@RunTime@VIP@@YGQBVRObject@12@QBVscopeDescriptor@12@QBV312@H@Z 
[import] 'Obj\string.C639126F.obj' KERNEL32.dll. _lstrlenW@4 
[import] 'Obj\filesystem_api.D2434073.obj' KERNEL32.dll. _ReadDirectoryChangesW@32 
[import] 'Obj\vpidomains.05891DA9.obj' vipRun.dll. __imp_?compoundFunctorDescriptorVTBL_ptr@RunTime@VIP@@3PAXA 
[import] 'Obj\registry.9E3F9277.obj' vipRun.dll. ?getListMember_nd_prolog_opt@RunTime@VIP@@YAXXZ 
[import] 'Obj\vpidomains.05891DA9.obj' vipRun.dll. __imp_?compoundTypeDescriptorVTBL_ptr@RunTime@VIP@@3PAXA 
[import] 'Obj\namedvalue.9E6FA98D.obj' vipRun.dll. ?toString@RunTime@VIP@@YGPBGQBVtypeLibrary@12@PAX@Z 
[import] 'Obj\math.FC1B1006.obj' vipRun.dll. ?roundToUnsigned64@RunTime@VIP@@YG_KN@Z 
[import] 'Obj\programcontrol.09950828.obj' vipKernel.dll. ?SetPrologExceptionPredicate@Kernel@VIP@@YGXQBVRPrologExceptionPredicateStruct@12@PAPAV312@@Z 
[import] 'Obj\console.93C0DBD8.obj' KERNEL32.dll. _WriteConsoleW@20 
[import] 'Obj\filesystem_api.D2434073.obj' KERNEL32.dll. _GetOverlappedResult@16 
[import] 'Obj\math.FC1B1006.obj' vipRun.dll. ?roundToInteger64@RunTime@VIP@@YG_JN@Z 
[import] 'Obj\filesystem_api.D2434073.obj' KERNEL32.dll. _FlushFileBuffers@4 
[import] 'Obj\math.FC1B1006.obj' vipRun.dll. ?roundToUnsigned@RunTime@VIP@@YGIN@Z 
[import] 'Obj\filesystem_api.D2434073.obj' KERNEL32.dll. _WriteFile@20 
[import] 'Obj\math.FC1B1006.obj' vipRun.dll. ?roundToInteger@RunTime@VIP@@YGHN@Z 
[import] 'Obj\filesystem.AD950C87.obj' KERNEL32.dll. _FindClose@4 
[import] 'Obj\math.FC1B1006.obj' vipRun.dll. ?round@RunTime@VIP@@YANN@Z 
[import] 'Obj\exceptiondump.364682AD.obj' KERNEL32.dll. _GetTempPathW@8 
[import] 'Obj\math.FC1B1006.obj' vipRun.dll. ?ln@RunTime@VIP@@YANN@Z 
[import] 'Obj\filesystem.AD950C87.obj' vipRun.dll. ?int64mod_prolog@RunTime@VIP@@YG_J_J0@Z 
[import] 'Obj\gui_api.660F5D37.obj' vipRun.dll. __imp_?functorlessUnionTypeDescriptorVTBL_ptr@RunTime@VIP@@3PAXA 
[import] 'Obj\std.8408A9CC.obj' vipRun.dll. ?subInteger64_prolog@RunTime@VIP@@YG_J_J0@Z 
[import] 'Obj\string.C639126F.obj' vipRun.dll. ?tryCheckPosition@RunTime@VIP@@YGXIPBG@Z 
[import] 'Obj\outputstreamsupport.DD5669F3.obj' vipRun.dll. ?saveDatabase@RunTime@VIP@@YGXQBVfactDbValue@12@QAVROutputStreamImpl@12@@Z 
[import] 'Obj\math.FC1B1006.obj' vipRun.dll. ?exp@RunTime@VIP@@YANN@Z 
[import] 'Obj\outputstreamsupport.DD5669F3.obj' vipRun.dll. ?writeBytes2Stream@RunTime@VIP@@YGXQAVROutputStreamImpl@12@QBEI@Z 
[import] 'Obj\math.FC1B1006.obj' vipRun.dll. ?arctan@RunTime@VIP@@YANN@Z 
[import] 'Obj\filesystem_api.D2434073.obj' KERNEL32.dll. _SetCurrentDirectoryW@4 
[import] 'Obj\math.FC1B1006.obj' vipRun.dll. ?sqrt@RunTime@VIP@@YANN@Z 
[import] 'Obj\filesystem_api.D2434073.obj' KERNEL32.dll. _GetDiskFreeSpaceExW@16 
[import] 'Obj\math.FC1B1006.obj' vipRun.dll. ?ConvertExRR@RunTime@VIP@@YGNPBV?$numericTypeDescriptor@N@12@0NH@Z 
[import] 'Obj\filesystem_api.D2434073.obj' KERNEL32.dll. _MoveFileW@8 
[import] 'Obj\string.C639126F.obj' vipRun.dll. ?abs_rr@RunTime@VIP@@YANN@Z 
[import] 'Obj\filesystem_api.D2434073.obj' KERNEL32.dll. _RemoveDirectoryW@4 
[import] 'Obj\string.C639126F.obj' vipRun.dll. ?frontToken@RunTime@VIP@@YG_NPBGAAPAG1@Z 
[import] 'Obj\gui_api.660F5D37.obj' USER32.dll. _EndPaint@8 
[import] 'Obj\std.8408A9CC.obj' vipRun.dll. ?Comparison_U64@RunTime@VIP@@YG?AW4compareResult@_builtIn_class@@_K0@Z 
[import] 'Obj\gui_api.660F5D37.obj' KERNEL32.dll. _SetLastError@4 
[import] 'Obj\string.C639126F.obj' KERNEL32.dll. _IsBadStringPtrW@8 
[import] 'Obj\gui_api.660F5D37.obj' USER32.dll. _SetWindowLongW@12 
[import] 'Obj\string.C639126F.obj' vipKernel.dll. ?LocalCut2@Kernel@VIP@@YAXPAE@Z 
[import] 'Obj\gui_api.660F5D37.obj' USER32.dll. _SetClassLongW@12 
[import] 'Obj\string8.ACF7B790.obj' vipKernel.dll. ?Stkb2@Kernel@VIP@@YAXXZ 
[import] 'Obj\string8.ACF7B790.obj' vipKernel.dll. ?OSCopyMemory@Kernel@VIP@@YAXPAXPBXI@Z 
[import] 'Obj\memory.89ECA104.obj' vipRun.dll. ?bitAnd64@RunTime@VIP@@YA_K_K0@Z 
[import] 'Obj\binary.A4D00680.obj' vipRun.dll. ?searchForChar@RunTime@VIP@@YGIPBGGI@Z 
[import] 'Obj\string.C639126F.obj' vipRun.dll. ?replace@RunTime@VIP@@YGPBGPBG00H_N@Z 
[import] 'Obj\gui_api.660F5D37.obj' USER32.dll. _InvalidateRect@12 
[import] 'Obj\main.A22FE9BF.obj' vipRun.dll. __imp_?anyTypeDescriptorVTBL_ptr@RunTime@VIP@@3PAXA 
[import] 'Obj\gui_api.660F5D37.obj' USER32.dll. _GetForegroundWindow@0 
[import] 'Obj\string.C639126F.obj' vipRun.dll. ?replace@RunTime@VIP@@YGPBGPBG00H_NAAI@Z 
[import] 'Obj\filesystem_api.D2434073.obj' KERNEL32.dll. _SetFilePointerEx@20 
[import] 'Obj\main.A22FE9BF.obj' vipRun.dll. __imp_?unsigned64TypeDescriptorVTBL_ptr@RunTime@VIP@@3PAXA 
[import] 'Obj\gui_api.660F5D37.obj' USER32.dll. _SetForegroundWindow@4 
[import] 'Obj\string.C639126F.obj' KERNEL32.dll. _GetThreadLocale@0 
[import] 'Obj\string8.ACF7B790.obj' vipRun.dll. ?bitAnd@RunTime@VIP@@YAIII@Z 
[import] 'Obj\console.93C0DBD8.obj' vipRun.dll. ?Error_DetermFactIsAlreadyAsserted@RunTime@VIP@@YAXQBVtypeLibrary@12@I@Z 
[import] 'Obj\time_api.1A6CCE63.obj' vipRun.dll. ?LoadProcAddress@RunTime@VIP@@YGP6GHXZQBGQBDPAP6GHXZ@Z 
[import] 'Obj\locale_api.813BCFA0.obj' KERNEL32.dll. _GetNumberFormatW@24 
[import] 'Obj\gui_api.660F5D37.obj' USER32.dll. _GetParent@4 
[import] 'Obj\time_api.1A6CCE63.obj' KERNEL32.dll. _GetLocaleInfoW@16 
[import] 'Obj\gui_api.660F5D37.obj' USER32.dll. _ClientToScreen@8 
[import] 'Obj\string.C639126F.obj' vipRun.dll. ?searchBack@RunTime@VIP@@YG_NPBG0QAI@Z 
[import] 'Obj\string.C639126F.obj' vipRun.dll. ?format2String@RunTime@VIP@@YGQBGQBGQBVrEllipsisArguments@12@@Z 
[import] 'Obj\main.A22FE9BF.obj' vipRun.dll. __imp_?integer64TypeDescriptorVTBL_ptr@RunTime@VIP@@3PAXA 
[import] 'Obj\gui_api.660F5D37.obj' GDI32.dll. _DeleteObject@4 
[import] 'Obj\main.A22FE9BF.obj' vipRun.dll. __imp_?factDbTypeDescriptorVTBL_ptr@RunTime@VIP@@3PAXA 
[import] 'Obj\gui_api.660F5D37.obj' GDI32.dll. _SelectObject@8 
[import] 'Obj\string.C639126F.obj' USER32.dll. _CharUpperW@4 
[import] 'Obj\console.93C0DBD8.obj' KERNEL32.dll. _SetConsoleMode@8 
[import] 'Obj\string.C639126F.obj' USER32.dll. _CharLowerW@4 
[import] 'Obj\gui_api.660F5D37.obj' USER32.dll. _GetMessageW@16 
[import] 'Obj\memory_api.61C8F3DA.obj' KERNEL32.dll. _GlobalMemoryStatusEx@4 
[import] 'Obj\exception.B3237F89.obj' vipKernel.dll. ?VIP_ErrorExitCreate@Kernel@VIP@@YGPAVtrapInfo_interface@12@I@Z 
[import] 'Obj\memory_api.61C8F3DA.obj' KERNEL32.dll. _GlobalAlloc@8 
[import] 'Obj\gui_api.660F5D37.obj' USER32.dll. _GetDC@4 
[import] 'Obj\memory_api.61C8F3DA.obj' KERNEL32.dll. _GlobalFree@4 
[import] 'Obj\namedvalue.9E6FA98D.obj' vipRun.dll. ?Error_TermsCannotBeMatched2@RunTime@VIP@@YGXQBVtypeLibrary@12@PAXPBG@Z 
[import] 'Obj\memory_api.61C8F3DA.obj' KERNEL32.dll. _GlobalLock@4 
[import] 'Obj\gui_api.660F5D37.obj' USER32.dll. _InsertMenuItemW@16 
[import] 'Obj\memory_api.61C8F3DA.obj' KERNEL32.dll. _GlobalUnlock@4 
[import] 'Obj\gui_api.660F5D37.obj' USER32.dll. _MoveWindow@24 
[import] 'Obj\string.C639126F.obj' vipRun.dll. ?isAlpha@RunTime@VIP@@YG_NPBG@Z 
[import] 'Obj\exception.B3237F89.obj' vipKernel.dll. ?GetLineFromAddrProlog@Kernel@VIP@@YGXPBXPAIPAPBG@Z 
[import] 'Obj\memory_api.61C8F3DA.obj' KERNEL32.dll. _GlobalSize@4 
[import] 'Obj\memory.89ECA104.obj' vipKernel.dll. ?GetTrapTop@Kernel@VIP@@YGQAVTBackTrackBlock@12@XZ 
[import] 'Obj\console.93C0DBD8.obj' vipRun.dll. ?ConvertExUI@RunTime@VIP@@YGHPBVbaseUnsignedDWordTypeDescriptor@12@PBV?$numericTypeDescriptor@H@12@IH@Z 
[import] 'Obj\gui_api.660F5D37.obj' USER32.dll. _OpenClipboard@4 
[import] 'Obj\memory_api.61C8F3DA.obj' vipKernel.dll. ?OSlstrlen@Kernel@VIP@@YGHPBG@Z 
[import] 'Obj\gui_api.660F5D37.obj' USER32.dll. _CloseClipboard@0 
[import] 'Obj\string8.ACF7B790.obj' KERNEL32.dll. _lstrlenA@4 
[import] 'Obj\gui_api.660F5D37.obj' USER32.dll. _SetClipboardViewer@4 
[import] 'Obj\memory_api.61C8F3DA.obj' KERNEL32.dll. _LocalFree@4 
[import] 'Obj\registry.9E3F9277.obj' vipRun.dll. ?bitOr@RunTime@VIP@@YAIII@Z 
[import] 'Obj\main.A22FE9BF.obj' vipRun.dll. __imp_?handleTypeDescriptorVTBL_ptr@RunTime@VIP@@3PAXA 
[import] 'Obj\exe_api.BB59C7F0.obj' ole32.dll. _OleInitialize@4 
[import] 'Obj\string.C639126F.obj' vipRun.dll. ?trimLast@RunTime@VIP@@YAPBGPBG@Z 
[import] 'Obj\exe_api.BB59C7F0.obj' ole32.dll. _CoInitializeEx@8 
[import] 'Obj\main.A22FE9BF.obj' vipRun.dll. __imp_?pointerTypeDescriptorVTBL_ptr@RunTime@VIP@@3PAXA 
[import] 'Obj\memory.89ECA104.obj' vipRun.dll. ?bitNot64@RunTime@VIP@@YA_K_K@Z 
[import] 'Obj\string.C639126F.obj' vipRun.dll. __imp_?factFunctorDescriptorVTBL_ptr@RunTime@VIP@@3PAXA 
[import] 'Obj\gui_api.660F5D37.obj' USER32.dll. _GetClipboardViewer@0 
[import] 'Obj\string.C639126F.obj' vipRun.dll. __imp_?factDatabaseTypeDescriptorVTBL_ptr@RunTime@VIP@@3PAXA 
[import] 'Obj\gui_api.660F5D37.obj' USER32.dll. _ChangeClipboardChain@8 
[import] 'Obj\list.50589F40.obj' vipRun.dll. ?isListMember_prolog@RunTime@VIP@@YAXXZ 
[import] 'Obj\gui_api.660F5D37.obj' USER32.dll. _SetClipboardData@8 
[import] 'Obj\string.C639126F.obj' vipRun.dll. ?searchch@RunTime@VIP@@YG_NPBGGQAI@Z 
[import] 'Obj\string.C639126F.obj' vipKernel.dll. ?MEM_alloc_listElementWithContextP@Kernel@VIP@@YGPBU?$__packedList_struct@E@@XZ 
[import] 'Obj\string.C639126F.obj' vipRun.dll. __imp_?functorlessFunctorDescriptorVTBL_ptr@RunTime@VIP@@3PAXA 
[import] 'Obj\multithread_api.6656783C.obj' KERNEL32.dll. _GetModuleHandleW@4 
[import] 'Obj\string.C639126F.obj' vipRun.dll. __imp_?functorlessTypeDescriptorVTBL_ptr@RunTime@VIP@@3PAXA 
[import] 'Obj\gui_api.660F5D37.obj' USER32.dll. _CountClipboardFormats@0 
[import] 'Obj\string.C639126F.obj' vipRun.dll. ?AllocateObjectEx@RunTime@VIP@@YGPAEQBVRObjectClassDescriptorInfo@12@PAP6GXPAX@Z@Z 
[import] 'Obj\gui_api.660F5D37.obj' USER32.dll. _EnumClipboardFormats@4 
[import] 'Obj\string.C639126F.obj' USER32.dll. _IsCharAlphaW@4 
[import] 'Obj\memory.89ECA104.obj' vipRun.dll. ?bitOr64@RunTime@VIP@@YA_K_K0@Z 
[import] 'Obj\mapmsupport.A422FE9A.obj' vipRun.dll. ?objectConversion@RunTime@VIP@@YGQBVRObject@12@QBVscopeDescriptor@12@QBV312@H@Z 
[import] 'Obj\exceptiondump.364682AD.obj' vipRun.dll. ?tryString2Term@RunTime@VIP@@YGXQBVtypeLibrary@12@PBGPAPAX@Z 
[import] 'Obj\string.C639126F.obj' USER32.dll. _IsCharAlphaNumericW@4 
[import] 'Obj\gui_api.660F5D37.obj' USER32.dll. _GetPriorityClipboardFormat@8 
[import] 'Obj\multithread_api.6656783C.obj' KERNEL32.dll. _CreateEventW@16 
[import] 'Obj\gui_api.660F5D37.obj' USER32.dll. _GetOpenClipboardWindow@0 
[import] 'Obj\multithread_api.6656783C.obj' KERNEL32.dll. _OpenEventW@12 
[import] 'Obj\gui_api.660F5D37.obj' USER32.dll. _GetWindowTextLengthW@4 
[import] 'Obj\multithread_api.6656783C.obj' KERNEL32.dll. _SetEvent@4 
[import] 'Obj\gui_api.660F5D37.obj' USER32.dll. _GetWindowRect@8 
[import] 'Obj\string.C639126F.obj' USER32.dll. _IsCharUpperW@4 
[import] 'Obj\gui_api.660F5D37.obj' USER32.dll. _GetWindowThreadProcessId@8 
[import] 'Obj\multithread_api.6656783C.obj' KERNEL32.dll. _ResetEvent@4 
[import] 'Obj\gui_api.660F5D37.obj' USER32.dll. _AttachThreadInput@12 
[import] 'Obj\multithread_api.6656783C.obj' KERNEL32.dll. _PulseEvent@4 
[import] 'Obj\console.93C0DBD8.obj' KERNEL32.dll. _SetConsoleOutputCP@4 
[import] 'Obj\string.C639126F.obj' USER32.dll. _IsCharLowerW@4 
[import] 'Obj\console_api.63955AF5.obj' KERNEL32.dll. _SetConsoleCtrlHandler@8 
[import] 'Obj\multithread_api.6656783C.obj' KERNEL32.dll. _CreateMutexW@12 
[import] 'Obj\gui_api.660F5D37.obj' GDI32.dll. _Rectangle@20 
[import] 'Obj\multithread_api.6656783C.obj' KERNEL32.dll. _OpenMutexW@12 
[import] 'Obj\console.93C0DBD8.obj' KERNEL32.dll. _GetStdHandle@4 
[import] 'Obj\multithread_api.6656783C.obj' KERNEL32.dll. _ReleaseMutex@4 
[import] 'Obj\string.C639126F.obj' vipRun.dll. __imp_?enumericFunctorDescriptorVTBL_ptr@RunTime@VIP@@3PAXA 
[import] 'Obj\multithread_api.6656783C.obj' KERNEL32.dll. _CreateSemaphoreW@16 
[import] 'Obj\gui_api.660F5D37.obj' USER32.dll. _DrawFocusRect@8 
[import] 'Obj\multithread_api.6656783C.obj' KERNEL32.dll. _OpenSemaphoreW@12 
[import] 'Obj\gui_api.660F5D37.obj' USER32.dll. _SetWindowPos@28 
[import] 'Obj\multithread_api.6656783C.obj' KERNEL32.dll. _ReleaseSemaphore@12 
[import] 'Obj\string8.ACF7B790.obj' vipRun.dll. ?bitLeft@RunTime@VIP@@YAIII@Z 
[import] 'Obj\multithread_api.6656783C.obj' KERNEL32.dll. _CreateWaitableTimerW@12 
[import] 'Obj\string8.ACF7B790.obj' vipRun.dll. ?bitRight@RunTime@VIP@@YAIII@Z 
[import] 'Obj\multithread_api.6656783C.obj' KERNEL32.dll. _OpenWaitableTimerW@12 
[import] 'Obj\gui_api.660F5D37.obj' USER32.dll. _MonitorFromRect@8 
[import] 'Obj\multithread_api.6656783C.obj' KERNEL32.dll. _SetWaitableTimer@24 
[import] 'Obj\gui_api.660F5D37.obj' vipRun.dll. ?copyString2inline@RunTime@VIP@@YGXQAXQBXII@Z 
[import] 'Obj\multithread_api.6656783C.obj' KERNEL32.dll. _CancelWaitableTimer@4 
[import] 'Obj\gui_api.660F5D37.obj' USER32.dll. _GetMonitorInfoW@8 
[import] 'Obj\string.C639126F.obj' vipRun.dll. ?log@RunTime@VIP@@YANN@Z 
[import] 'Obj\memory.89ECA104.obj' vipRun.dll. ?bitNot@RunTime@VIP@@YAII@Z 
[import] 'Obj\multithread_api.6656783C.obj' KERNEL32.dll. _GetProcAddress@8 
[import] 'Obj\inputstreamsupport.CF2B28B0.obj' vipRun.dll. __imp_?packedCompoundTypeDescriptorVTBL_ptr@RunTime@VIP@@3PAXA 
[import] 'Obj\main.A22FE9BF.obj' vipRun.dll. __imp_?binaryTypeDescriptorVTBL_ptr@RunTime@VIP@@3PAXA 
[import] 'Obj\reflection.9A16C2FF.obj' vipRun.dll. ?ConvertExIR@RunTime@VIP@@YGNPBVbaseIntegerDWordTypeDescriptor@12@PBV?$numericTypeDescriptor@N@12@HH@Z 
[import] 'Obj\stream.6FDF4122.obj' vipRun.dll. ?Error_SingleFactHasNoValue@RunTime@VIP@@YAXQBVtypeLibrary@12@I@Z 
[import] 'Obj\gui_api.660F5D37.obj' USER32.dll. _SetTimer@16 
[import] 'Obj\multithread_api.6656783C.obj' KERNEL32.dll. _GetThreadContext@8 
[import] 'Obj\gui_api.660F5D37.obj' USER32.dll. _GetIconInfo@8 
[import] 'Obj\multithread_api.6656783C.obj' KERNEL32.dll. _SetThreadContext@8 
[import] 'Obj\gui_api.660F5D37.obj' USER32.dll. _EnableWindow@8 
[import] 'Obj\main.A22FE9BF.obj' vipRun.dll. __imp_?charTypeDescriptorVTBL_ptr@RunTime@VIP@@3PAXA 
[import] 'Obj\memory.89ECA104.obj' vipKernel.dll. ?ReleaseHeap@Kernel@VIP@@YGXPAE@Z 
[import] 'Obj\multithread_api.6656783C.obj' KERNEL32.dll. _GetThreadSelectorEntry@12 
[import] 'Obj\string.C639126F.obj' vipRun.dll. ?create@RunTime@VIP@@YGPBGIPBG@Z 
[import] 'Obj\registry.9E3F9277.obj' KERNEL32.dll. _GetCurrentProcess@0 
[import] 'Obj\memory.89ECA104.obj' KERNEL32.dll. _IsBadWritePtr@8 
[import] 'Obj\multithread_api.6656783C.obj' KERNEL32.dll. _SetProcessAffinityMask@8 
[import] 'Obj\string.C639126F.obj' vipRun.dll. ?Comparison_I64@RunTime@VIP@@YG?AW4compareResult@_builtIn_class@@_J0@Z 
[import] 'Obj\main.A22FE9BF.obj' vipRun.dll. __imp_?string8TypeDescriptorVTBL_ptr@RunTime@VIP@@3PAXA 
[import] 'Obj\memory.89ECA104.obj' vipKernel.dll. ?AllocHeap@Kernel@VIP@@YGPAEI@Z 
[import] 'Obj\main.A22FE9BF.obj' vipRun.dll. __imp_?symbolTypeDescriptorVTBL_ptr@RunTime@VIP@@3PAXA 
[import] 'Obj\memory.89ECA104.obj' vipKernel.dll. ?AllocUncollectableHeap@Kernel@VIP@@YGPAEI@Z 
[import] 'Obj\main.A22FE9BF.obj' vipRun.dll. __imp_?stringTypeDescriptorVTBL_ptr@RunTime@VIP@@3PAXA 
[import] 'Obj\main.A22FE9BF.obj' vipRun.dll. __imp_?inlineTypeDescriptorVTBL_ptr@RunTime@VIP@@3PAXA 
[import] 'Obj\memory.89ECA104.obj' vipRun.dll. __imp_?unsigned8TypeDescriptorVTBL_ptr@RunTime@VIP@@3PAXA 
[import] 'Obj\gui_api.660F5D37.obj' USER32.dll. _SetScrollRange@20 
[import] 'Obj\main.A22FE9BF.obj' vipRun.dll. __imp_?real32TypeDescriptorVTBL_ptr@RunTime@VIP@@3PAXA 
[import] 'Obj\gui_api.660F5D37.obj' USER32.dll. _SetScrollInfo@16 
[import] 'Obj\math.FC1B1006.obj' vipRun.dll. __imp_?real64TypeDescriptorVTBL_ptr@RunTime@VIP@@3PAXA 
[import] 'Obj\inputstreamsupport.CF2B28B0.obj' vipRun.dll. ?ungetChar@RunTime@VIP@@YGXQAVRInputStreamImpl@12@@Z 
[import] 'Obj\memory.89ECA104.obj' vipRun.dll. ?AllocListElementByTypeP@RunTime@VIP@@YGPBU?$__packedList_struct@E@@QBVtypeLibrary@12@@Z 
[import] 'Obj\inputstreamsupport.CF2B28B0.obj' vipRun.dll. ?ParseLineCRLF@RunTime@VIP@@YGPBGQAVRInputStreamImpl@12@@Z 
[import] 'Obj\registry_api.32A69E85.obj' ADVAPI32.dll. _RegOpenKeyExW@20 
[import] 'Obj\inputstreamsupport.CF2B28B0.obj' vipRun.dll. ?consultDatabase@RunTime@VIP@@YGXQBVfactDbValue@12@QAVRInputStreamImpl@12@@Z 
[import] 'Obj\registry_api.32A69E85.obj' ADVAPI32.dll. _RegCloseKey@4 
[import] 'Obj\string.C639126F.obj' vipKernel.dll. ?AllocHeapWCTS@Kernel@VIP@@YGQAEIIII@Z 
[import] 'Obj\registry_api.32A69E85.obj' ADVAPI32.dll. _RegCreateKeyExW@36 
[import] 'Obj\binary.A4D00680.obj' vipKernel.dll. ?MEM_alloc_nullfunctor@Kernel@VIP@@YGPBEI@Z 
[import] 'Obj\registry_api.32A69E85.obj' ADVAPI32.dll. _RegDeleteKeyW@8 
[import] 'Obj\gui_api.660F5D37.obj' USER32.dll. _CreateWindowExW@48 
[import] 'Obj\inputstreamsupport.CF2B28B0.obj' vipKernel.dll. ?Succeed_Prolog@Kernel@VIP@@YAXXZ 
[import] 'Obj\filesystem_api.D2434073.obj' KERNEL32.dll. _PostQueuedCompletionStatus@16 
[import] 'Obj\registry_api.32A69E85.obj' ADVAPI32.dll. _RegEnumKeyExW@32 
[import] 'Obj\gui_api.660F5D37.obj' vipRun.dll. ?ConvertExIU@RunTime@VIP@@YGIPBVbaseIntegerDWordTypeDescriptor@12@PBV?$numericTypeDescriptor@I@12@HH@Z 
[import] 'Obj\registry_api.32A69E85.obj' ADVAPI32.dll. _RegSetValueExW@24 
[import] 'Obj\filesystem_api.D2434073.obj' KERNEL32.dll. _DuplicateHandle@28 
[import] 'Obj\registry_api.32A69E85.obj' ADVAPI32.dll. _RegQueryValueExW@24 
[import] 'Obj\console.93C0DBD8.obj' KERNEL32.dll. _ReadFile@20 
[import] 'Obj\registry_api.32A69E85.obj' ADVAPI32.dll. _RegDeleteValueW@8 
[import] 'Obj\filesystem.AD950C87.obj' KERNEL32.dll. _GetFileAttributesExW@12 
[import] 'Obj\registry_api.32A69E85.obj' ADVAPI32.dll. _RegEnumValueW@32 
[import] 'Obj\filesystem_api.D2434073.obj' KERNEL32.dll. _GetLongPathNameW@12 
[import] 'Obj\core.9A8E3854.obj' vipRun.dll. __imp_?integer32TypeDescriptorVTBL_ptr@RunTime@VIP@@3PAXA 
[import] 'Obj\string.C639126F.obj' vipRun.dll. ?create@RunTime@VIP@@YAPBGI@Z 
[import] 'Obj\runtime_api.77D75C02.obj' USER32.dll. _GetSystemMetrics@4 
[import] 'Obj\filesystem_api.D2434073.obj' KERNEL32.dll. _SetVolumeLabelW@8 
[import] 'Obj\console.93C0DBD8.obj' KERNEL32.dll. _FreeConsole@0 
[import] 'Obj\gui_api.660F5D37.obj' USER32.dll. _BeginPaint@8 
[import] 'Obj\shell_api.FFCE11BE.obj' SHELL32.dll. _ShellExecuteW@24 
[import] 'Obj\gui_api.660F5D37.obj' USER32.dll. _GetWindowLongW@8 
[import] 'Obj\shell_api.FFCE11BE.obj' SHELL32.dll. _ShellExecuteExW@4 
[import] 'Obj\string.C639126F.obj' vipRun.dll. ?search@RunTime@VIP@@YG_NPBG0QAI@Z 
[import] 'Obj\shell_api.FFCE11BE.obj' SHLWAPI.dll. _SHCreateStreamOnFileEx@24 
[import] 'Obj\gui_api.660F5D37.obj' GDI32.dll. _ExtTextOutW@32 
[import] 'Obj\shell_api.FFCE11BE.obj' SHELL32.dll. _CommandLineToArgvW@8 
[import] 'Obj\filesystem_api.D2434073.obj' KERNEL32.dll. _GetVolumeInformationW@32 
[import] 'Obj\filesystem.AD950C87.obj' vipRun.dll. __imp_?integer16TypeDescriptorVTBL_ptr@RunTime@VIP@@3PAXA 
[import] 'Obj\filesystem.AD950C87.obj' KERNEL32.dll. _CreateFileW@28 
[import] 'Obj\core.9A8E3854.obj' vipRun.dll. __imp_?integer8TypeDescriptorVTBL_ptr@RunTime@VIP@@3PAXA 
[import] 'Obj\gui_api.660F5D37.obj' USER32.dll. _SetFocus@4 
[import] 'Obj\string.C639126F.obj' vipKernel.dll. ?Stkb3@Kernel@VIP@@YAXXZ 
[import] 'Obj\gui_api.660F5D37.obj' USER32.dll. _ScreenToClient@8 
[import] 'Obj\core.9A8E3854.obj' vipRun.dll. __imp_?unsigned16TypeDescriptorVTBL_ptr@RunTime@VIP@@3PAXA 
[import] 'Obj\list.50589F40.obj' vipRun.dll. ?CompareTerms_Prolog@RunTime@VIP@@YA?AW4compareResult@_builtIn_class@@XZ 
[import] 'Obj\filesystem.AD950C87.obj' KERNEL32.dll. _CopyFileW@12 
[import] 'Obj\gui_api.660F5D37.obj' USER32.dll. _CreateAcceleratorTableW@8 
[import] 'Obj\filesystem.AD950C87.obj' ole32.dll. _CoTaskMemFree@4 
[import] 'Obj\gui_api.660F5D37.obj' USER32.dll. _ReleaseDC@8 
[import] 'Obj\filesystem.AD950C87.obj' SHELL32.dll. _SHGetPathFromIDListW@8 
[import] 'Obj\gui_api.660F5D37.obj' USER32.dll. _GetMenuItemInfoW@16 
[import] 'Obj\filesystem.AD950C87.obj' SHELL32.dll. _SHBrowseForFolderW@4 
[import] 'Obj\string8.ACF7B790.obj' vipRun.dll. ?ConvertExUU@RunTime@VIP@@YGIPBVbaseUnsignedDWordTypeDescriptor@12@PBV?$numericTypeDescriptor@I@12@IH@Z 
[import] 'Obj\console.93C0DBD8.obj' KERNEL32.dll. _ReadConsoleInputW@16 
[import] 'Obj\exception.B3237F89.obj' KERNEL32.dll. _VirtualQuery@12 
[import] 'Obj\console.93C0DBD8.obj' KERNEL32.dll. _WaitForSingleObject@8 
[import] 'Obj\gui_api.660F5D37.obj' USER32.dll. _GetClipboardOwner@0 
[import] 'Obj\console.93C0DBD8.obj' KERNEL32.dll. _GetNumberOfConsoleInputEvents@8 
[import] 'Obj\exe_api.BB59C7F0.obj' ole32.dll. _OleUninitialize@0 
[import] 'Obj\exceptiondump.364682AD.obj' USER32.dll. _MessageBoxW@16 
[import] 'Obj\registry.9E3F9277.obj' vipKernel.dll. ?VIP_ErrorExit7@Kernel@VIP@@YGXPBVtrapInfo_interface@12@@Z 
[import] 'Obj\filesystem.AD950C87.obj' KERNEL32.dll. _GetWindowsDirectoryW@8 
[import] 'Obj\string.C639126F.obj' vipKernel.dll. ?StkTrap@Kernel@VIP@@YAXXZ 
[import] 'Obj\filesystem.AD950C87.obj' KERNEL32.dll. _GetSystemDirectoryW@8 
[import] 'Obj\gui_api.660F5D37.obj' USER32.dll. _GetClipboardData@4 
[import] 'Obj\filesystem.AD950C87.obj' SHELL32.dll. _SHGetFolderPathW@20 
[import] 'Obj\gui_api.660F5D37.obj' USER32.dll. _RegisterClipboardFormatW@4 
[import] 'Obj\console.93C0DBD8.obj' KERNEL32.dll. _GetConsoleOutputCP@0 
[import] 'Obj\gui_api.660F5D37.obj' USER32.dll. _GetClipboardFormatNameW@12 
[import] 'Obj\console.93C0DBD8.obj' KERNEL32.dll. _GetConsoleCP@0 
[import] 'Obj\gui_api.660F5D37.obj' USER32.dll. _IsClipboardFormatAvailable@4 
[import] 'Obj\outputstreamsupport.DD5669F3.obj' vipRun.dll. __imp_?prologArrowTypeDescriptorVTBL_ptr@RunTime@VIP@@3PAXA 
[import] 'Obj\gui_api.660F5D37.obj' USER32.dll. _DestroyWindow@4 
[import] 'Obj\console.93C0DBD8.obj' KERNEL32.dll. _SetConsoleTextAttribute@8 
[import] 'Obj\gui_api.660F5D37.obj' USER32.dll. _LoadImageW@24 
[import] 'Obj\console.93C0DBD8.obj' KERNEL32.dll. _GetConsoleScreenBufferInfo@8 
[import] 'Obj\gui_api.660F5D37.obj' USER32.dll. _SetActiveWindow@4 
[import] 'Obj\console.93C0DBD8.obj' KERNEL32.dll. _GetConsoleMode@8 
[import] 'Obj\console_api.63955AF5.obj' KERNEL32.dll. _SetStdHandle@8 
[import] 'Obj\filesystem.AD950C87.obj' KERNEL32.dll. _MoveFileExW@12 
[import] 'Obj\filesystem.AD950C87.obj' vipRun.dll. ?InitInputParser@RunTime@VIP@@YGPAVRInputStreamImpl@12@QAVRROBufferProvider@12@@Z 
[import] 'Obj\filesystem.AD950C87.obj' KERNEL32.dll. _DeleteFileW@4 
[import] 'Obj\gui_api.660F5D37.obj' USER32.dll. _TrackMouseEvent@4 
[import] 'Obj\filesystem.AD950C87.obj' KERNEL32.dll. _GetFileAttributesW@4 
[import] 'Obj\gui_api.660F5D37.obj' GDI32.dll. _GetStockObject@4 
[import] 'Obj\filesystem.AD950C87.obj' KERNEL32.dll. _FindFirstFileW@8 
[import] 'Obj\gui_api.660F5D37.obj' USER32.dll. _MonitorFromWindow@8 
[import] 'Obj\filesystem.AD950C87.obj' KERNEL32.dll. _GetDriveTypeW@4 
[import] 'Obj\string8.ACF7B790.obj' vipKernel.dll. ?OSZeroMemory@Kernel@VIP@@YAXPAXI@Z 
[import] 'Obj\console.93C0DBD8.obj' KERNEL32.dll. _GetConsoleTitleW@8 
[import] 'Obj\inputstreamsupport.CF2B28B0.obj' vipRun.dll. ?ConvertExUR@RunTime@VIP@@YGNPBVbaseUnsignedDWordTypeDescriptor@12@PBV?$numericTypeDescriptor@N@12@IH@Z 
[import] 'Obj\filesystem.AD950C87.obj' KERNEL32.dll. _FindNextFileW@8 
[import] 'Obj\gui_api.660F5D37.obj' USER32.dll. _KillTimer@8 
[import] 'Obj\filesystem.AD950C87.obj' KERNEL32.dll. _GetTempFileNameW@16 
[import] 'Obj\gui_api.660F5D37.obj' USER32.dll. _TranslateAccelerator@12 
[import] 'Obj\console.93C0DBD8.obj' KERNEL32.dll. _SetConsoleTitleW@4 
[import] 'Obj\console.93C0DBD8.obj' KERNEL32.dll. _FlushConsoleInputBuffer@4 
[import] 'Obj\string8.ACF7B790.obj' KERNEL32.dll. _MultiByteToWideChar@24 
[import] 'Obj\memory.89ECA104.obj' vipKernel.dll. ?AllocAtomicHeap@Kernel@VIP@@YGPAEI@Z 
[import] 'Obj\string8_api.5ED5FF25.obj' KERNEL32.dll. _WideCharToMultiByte@32 
[import] 'Obj\std.8408A9CC.obj' vipRun.dll. ?subUnsigned64WOO_prolog@RunTime@VIP@@YG_K_K0@Z 
[import] 'Obj\filesystem.AD950C87.obj' KERNEL32.dll. _SearchPathW@24 
[import] 'Obj\gui_api.660F5D37.obj' USER32.dll. _GetScrollInfo@12 
[import] 'Obj\inputstreamsupport.CF2B28B0.obj' vipRun.dll. ?RetractFactDataBaseWCTS@RunTime@VIP@@YGXQBVfactDbValue@12@@Z 
[import] 'Obj\inputstreamsupport.CF2B28B0.obj' vipRun.dll. ?ParseLine@RunTime@VIP@@YGPBGQAVRInputStreamImpl@12@@Z 
[import] 'Obj\string8_api.5ED5FF25.obj' USER32.dll. _CharNextExA@12 
[import] 'Obj\gui_api.660F5D37.obj' USER32.dll. _GetWindowPlacement@8 
[import] 'Obj\systeminformation_api.344506F5.obj' KERNEL32.dll. _GetVersionExW@4 
[import] 'Obj\gui_api.660F5D37.obj' GDI32.dll. _GetTextMetricsW@8 
[import] 'Obj\string.C639126F.obj' vipKernel.dll. ?RunTimeError_FloatDivideByZero@Kernel@VIP@@YAXXZ 
[import] 'Obj\filesystem_api.D2434073.obj' KERNEL32.dll. _GetQueuedCompletionStatus@20 
[import] 'Obj\systeminformation_api.344506F5.obj' KERNEL32.dll. _GetSystemInfo@4 
[import] 'Obj\filesystem.AD950C87.obj' KERNEL32.dll. _CloseHandle@4 
[import] 'Obj\systeminformation_api.344506F5.obj' KERNEL32.dll. _GetNativeSystemInfo@4 
[import] 'Obj\outputstreamsupport.DD5669F3.obj' vipRun.dll. ?format2Stream@RunTime@VIP@@YGXQAVROutputStreamImpl@12@QBGQBVrEllipsisArguments@12@@Z 
[import] 'Obj\systeminformation_api.344506F5.obj' ADVAPI32.dll. _GetUserNameW@8 
[import] 'Obj\filesystem_api.D2434073.obj' KERNEL32.dll. _GetCurrentDirectoryW@8 
[import] 'Obj\outputstreamsupport.DD5669F3.obj' vipRun.dll. __imp_?interfaceTypeDescriptorVTBL_ptr@RunTime@VIP@@3PAXA 
[import] 'Obj\gui_api.660F5D37.obj' USER32.dll. _GetClientRect@8 
[import] 'Obj\systeminformation_api.344506F5.obj' Secur32.dll. _GetUserNameExW@12 
[import] 'Obj\string8.ACF7B790.obj' vipKernel.dll. ?Cut_Prolog@Kernel@VIP@@YAXXZ 
[import] 'Obj\systeminformation_api.344506F5.obj' KERNEL32.dll. _GetComputerNameW@8 
[import] 'Obj\filesystem_api.D2434073.obj' KERNEL32.dll. _GetFileSizeEx@8 
[import] 'Obj\systeminformation_api.344506F5.obj' KERNEL32.dll. _GetComputerNameExW@12 
[import] 'Obj\gui_api.660F5D37.obj' USER32.dll. _SetParent@8 
[import] 'Obj\string8.ACF7B790.obj' vipRun.dll. __imp_?scopeDescriptorVTBL_ptr@RunTime@VIP@@3PAXA 
[import] 'Obj\gui_api.660F5D37.obj' GDI32.dll. _CreateFontIndirectW@4 
[import] 'Obj\systeminformation_api.344506F5.obj' USER32.dll. _SystemParametersInfoW@16 
[import] 'Obj\gui_api.660F5D37.obj' USER32.dll. _GetMenu@4 
[import] 'Obj\string8.ACF7B790.obj' KERNEL32.dll. _IsValidCodePage@4 
[import] 'Obj\memory.89ECA104.obj' vipKernel.dll. ?SetTrapTop@Kernel@VIP@@YGXPAVTBackTrackBlock@12@@Z 
[import] 'Obj\memory.89ECA104.obj' vipRun.dll. ?compareTerms@RunTime@VIP@@YG?AW4compareResult@_builtIn_class@@QBVtypeLibrary@12@PAX1@Z 
[import] 'Obj\exception.B3237F89.obj' KERNEL32.dll. _SetErrorMode@4 
[import] 'Obj\string8.ACF7B790.obj' KERNEL32.dll. _IsBadStringPtrA@8 
[import] 'Obj\exception.B3237F89.obj' vipRun.dll. ?ErrorRangeSigned@RunTime@VIP@@YGXQBV?$numericTypeDescriptor@H@12@H@Z 
[import] 'Obj\math.FC1B1006.obj' vipRun.dll. ?trunc@RunTime@VIP@@YANN@Z 
[import] 'Obj\exception.B3237F89.obj' KERNEL32.dll. _GetModuleFileNameW@12 
[import] 'Obj\time_api.1A6CCE63.obj' vipRun.dll. ?universalNumericConvert8_ex@RunTime@VIP@@YGXPBVnumericTypeDescriptor_internal@12@0_JPAX_N@Z 
[import] 'Obj\gui_api.660F5D37.obj' USER32.dll. _EmptyClipboard@0 
[import] 'Obj\filesystem.AD950C87.obj' KERNEL32.dll. _SetFileAttributesW@8 
[import] 'Obj\filesystem.AD950C87.obj' USER32.dll. _SendMessageW@16 
[import] 'Obj\time_api.1A6CCE63.obj' vipRun.dll. ?mulUnsigned64_prolog@RunTime@VIP@@YG_K_K0@Z 
[import] 'Obj\console.93C0DBD8.obj' KERNEL32.dll. _SetConsoleCP@4 
[import] 'Obj\filesystem.AD950C87.obj' ADVAPI32.dll. _IsTextUnicode@12 
[import] 'Obj\string.C639126F.obj' vipRun.dll. __imp_?enumericTypeDescriptorVTBL_ptr@RunTime@VIP@@3PAXA 
[import] 'Obj\time_api.1A6CCE63.obj' KERNEL32.dll. _GetSystemTimeAsFileTime@4 
[import] 'Obj\gui_api.660F5D37.obj' USER32.dll. _MonitorFromPoint@12 
[import] 'Obj\filesystem.AD950C87.obj' vipKernel.dll. ?OSCompareMemory@Kernel@VIP@@YGHPBX0I@Z 
[import] 'Obj\gui_api.660F5D37.obj' USER32.dll. _SendInput@12 
[import] 'Obj\string8.ACF7B790.obj' vipKernel.dll. ?Run_Fail@Kernel@VIP@@YAXXZ 
[import] 'Obj\gui_api.660F5D37.obj' USER32.dll. _DestroyIcon@4 
[import] 'Obj\time_api.1A6CCE63.obj' KERNEL32.dll. _FileTimeToSystemTime@8 
[import] 'Obj\memory.89ECA104.obj' KERNEL32.dll. _IsBadReadPtr@8 
[import] 'Obj\string.C639126F.obj' vipRun.dll. __imp_?functor_typeLibraryVTBL_ptr@RunTime@VIP@@3PAXA 
[import] 'Obj\gui_api.660F5D37.obj' USER32.dll. _CreateDialogParamW@20 
[import] 'Obj\time_api.1A6CCE63.obj' KERNEL32.dll. _SystemTimeToFileTime@8 
[import] 'Obj\inputstreamsupport.CF2B28B0.obj' vipRun.dll. ?ParseFromStream@RunTime@VIP@@YGPAXQBVtypeLibrary@12@QAVRInputStreamImpl@12@I@Z 
[import] 'Obj\memory.89ECA104.obj' vipKernel.dll. ?OSMoveMemory@Kernel@VIP@@YAXPAXPBXI@Z 
[import] 'Obj\filesystem_api.D2434073.obj' KERNEL32.dll. _CancelIo@4 
[import] 'Obj\arraym_inline.0A13D119.obj' vipRun.dll. ?sizeOfDomain@RunTime@VIP@@YGIQBVtypeLibrary@12@@Z 
[import] 'Obj\outputstreamsupport.DD5669F3.obj' vipRun.dll. ?write2Stream@RunTime@VIP@@YGXQAVROutputStreamImpl@12@IIQBVrEllipsisArguments@12@@Z 
[import] 'Obj\string8.ACF7B790.obj' vipKernel.dll. ?AllocHeapWithContext@Kernel@VIP@@YGQAEIII@Z 
[import] 'Obj\filesystem_api.D2434073.obj' KERNEL32.dll. _CreateDirectoryW@8 
[import] 'Obj\time_api.1A6CCE63.obj' KERNEL32.dll. _GetTimeZoneInformation@4 
[import] 'Obj\gui_api.660F5D37.obj' USER32.dll. _BringWindowToTop@4 
[import] 'Obj\time_api.1A6CCE63.obj' KERNEL32.dll. _SystemTimeToTzSpecificLocalTime@12 
[import] 'Obj\gui_api.660F5D37.obj' USER32.dll. _AdjustWindowRectEx@16 
[import] 'Obj\string8.ACF7B790.obj' vipRun.dll. __imp_?typeLibraryVTBL_ptr@RunTime@VIP@@3PAXA 
[import] 'Obj\gui_api.660F5D37.obj' USER32.dll. _EndMenu@0 
[import] 'Obj\time_api.1A6CCE63.obj' KERNEL32.dll. _TzSpecificLocalTimeToSystemTime@12 
[import] 'Obj\exe_api.BB59C7F0.obj' ole32.dll. _CoUninitialize@0 
[import] 'Obj\time_api.1A6CCE63.obj' KERNEL32.dll. _GetTimeFormatW@24 
[import] 'Obj\reflection.9A16C2FF.obj' vipRun.dll. __imp_?otherArrowTypeDescriptorVTBL_ptr@RunTime@VIP@@3PAXA 
[import] '..\..\..\_intermediate\sourceVS\vipInit\Win32\ReleasePE\VIPMain.obj' vipKernel.dll. ?KernelUnitInitialization@Kernel@VIP@@YGHPAX@Z 
[import] 'Obj\string.C639126F.obj' vipRun.dll. __imp_?alignedFunctorlessFunctorDescriptorVTBL_ptr@RunTime@VIP@@3PAXA 
[import] '..\..\..\_intermediate\sourceVS\vipInit\Win32\ReleasePE\VIPMain.obj' vipKernel.dll. ?ExeInitialization@Kernel@VIP@@YAHXZ 
[import] 'Obj\gui_api.660F5D37.obj' USER32.dll. _UpdateLayeredWindow@36 
[import] '..\..\..\_intermediate\sourceVS\vipInit\Win32\ReleasePE\VIPDll.obj' vipKernel.dll. ?RunGoal@Kernel@VIP@@YGIQ6AIXZ@Z 
[import] 'Obj\gui_api.660F5D37.obj' USER32.dll. _GetMenuItemRect@16 
[import] '..\..\..\_intermediate\sourceVS\vipInit\Win32\ReleasePE\VIPMain.obj' vipKernel.dll. ?ExeTermination@Kernel@VIP@@YAXH@Z 
[import] 'Obj\string.C639126F.obj' KERNEL32.dll. _CompareStringW@24 
[import] '..\..\..\_intermediate\sourceVS\vipInit\Win32\ReleasePE\VIPDll.obj' vipKernel.dll. ?KernelUnitTermination@Kernel@VIP@@YAXPAX@Z 
[import] 'Obj\gui_api.660F5D37.obj' USER32.dll. _SetWindowPlacement@8 
[import] '..\..\..\_intermediate\sourceVS\vipInit\Win32\ReleasePE\VIPDll.obj' vipRun.dll. ?RunUnitInitialization@RunTime@VIP@@YGHPAX@Z 
[import] 'Obj\filesystem_api.D2434073.obj' KERNEL32.dll. _GetShortPathNameW@12 
[import] '..\..\..\_intermediate\sourceVS\vipInit\Win32\ReleasePE\VIPDll.obj' vipRun.dll. ?InitializationDictionaries@RunTime@VIP@@YGHPBVdicofdic@12@@Z 
[import] 'Obj\string.C639126F.obj' vipKernel.dll. ?MEM_alloc_listElementWCAP@Kernel@VIP@@YGPBU?$__packedList_struct@E@@XZ 
[import] '..\..\..\_intermediate\sourceVS\vipInit\Win32\ReleasePE\VIPDll.obj' vipRun.dll. ?RunUnitTermination@RunTime@VIP@@YGXPAX@Z 
[import] 'Obj\string.C639126F.obj' vipRun.dll. ?Unify@RunTime@VIP@@YGXQBVtypeLibrary@12@PAX1@Z 
[import] 'Obj\time_api.1A6CCE63.obj' KERNEL32.dll. _GetDateFormatW@24 
[import] 'Obj\console.93C0DBD8.obj' KERNEL32.dll. _ReadConsoleW@20 
[import] '..\..\..\_intermediate\sourceVS\vipInit\Win32\ReleasePE\VIPMain.obj' KERNEL32.dll. __imp__ExitProcess@4 
[import] 'Obj\inputstreamsupport.CF2B28B0.obj' vipRun.dll. __imp_?packedCompoundFunctorDescriptorVTBL_ptr@RunTime@VIP@@3PAXA 
[import] '..\..\..\_intermediate\sourceVS\vipInit\Win32\ReleasePE\VIPDll.obj' vipKernel.dll. ?KernelUnitInitialization2@Kernel@VIP@@YGHPAX_N@Z 
[import] 'Obj\inputstreamsupport.CF2B28B0.obj' vipRun.dll. ?ParseChar@RunTime@VIP@@YGGQAVRInputStreamImpl@12@@Z 
[import] 'Obj\time_api.1A6CCE63.obj' vipRun.dll. ?uint64mod_prolog@RunTime@VIP@@YG_K_K0@Z 
[import] 'Obj\gui_api.660F5D37.obj' USER32.dll. _GetClassLongW@8 
[import] 'Obj\filesystem.AD950C87.obj' SHELL32.dll. _SHFileOperationW@4 
[import] 'Obj\gui_api.660F5D37.obj' USER32.dll. _IsDialogMessageW@8 
[import] 'Obj\filesystem_api.D2434073.obj' KERNEL32.dll. _CreateIoCompletionPort@16 
[import] 'Obj\string.C639126F.obj' vipRun.dll. ?write2String@RunTime@VIP@@YGQBGIIQBVrEllipsisArguments@12@@Z 
[import] 'Obj\string.C639126F.obj' KERNEL32.dll. _GetLastError@0 
[import] 'Obj\filesystem.AD950C87.obj' KERNEL32.dll. _GetFullPathNameW@16 
[import] '..\..\..\_intermediate\sourceVS\vipInit\Win32\ReleasePE\VIPPE.obj' USER32.dll. __imp__MessageBoxA@16 
[import] 'Obj\time_api.1A6CCE63.obj' vipRun.dll. ?addUnsigned64_prolog@RunTime@VIP@@YG_K_K0@Z 
[import] 'Obj\string.C639126F.obj' vipKernel.dll. ?AllocAtomicHeapWithContext@Kernel@VIP@@YGQAEIII@Z 
--- Total Names =  4334 --------
--- Total Cnt   =  4334 --------
--------------------------------

